
build/pancake_fibo_x64:     file format elf64-x86-64


Disassembly of section .init:

0000000000001000 <_init>:
    1000:	f3 0f 1e fa          	endbr64 
    1004:	48 83 ec 08          	sub    $0x8,%rsp
    1008:	48 8b 05 d9 6f 00 00 	mov    0x6fd9(%rip),%rax        # 7fe8 <__gmon_start__@Base>
    100f:	48 85 c0             	test   %rax,%rax
    1012:	74 02                	je     1016 <_init+0x16>
    1014:	ff d0                	call   *%rax
    1016:	48 83 c4 08          	add    $0x8,%rsp
    101a:	c3                   	ret    

Disassembly of section .plt:

0000000000001020 <puts@plt-0x10>:
    1020:	ff 35 92 6f 00 00    	push   0x6f92(%rip)        # 7fb8 <_GLOBAL_OFFSET_TABLE_+0x8>
    1026:	ff 25 94 6f 00 00    	jmp    *0x6f94(%rip)        # 7fc0 <_GLOBAL_OFFSET_TABLE_+0x10>
    102c:	0f 1f 40 00          	nopl   0x0(%rax)

0000000000001030 <puts@plt>:
    1030:	ff 25 92 6f 00 00    	jmp    *0x6f92(%rip)        # 7fc8 <puts@GLIBC_2.2.5>
    1036:	68 00 00 00 00       	push   $0x0
    103b:	e9 e0 ff ff ff       	jmp    1020 <_init+0x20>

0000000000001040 <printf@plt>:
    1040:	ff 25 8a 6f 00 00    	jmp    *0x6f8a(%rip)        # 7fd0 <printf@GLIBC_2.2.5>
    1046:	68 01 00 00 00       	push   $0x1
    104b:	e9 d0 ff ff ff       	jmp    1020 <_init+0x20>

Disassembly of section .plt.got:

0000000000001050 <__cxa_finalize@plt>:
    1050:	ff 25 a2 6f 00 00    	jmp    *0x6fa2(%rip)        # 7ff8 <__cxa_finalize@GLIBC_2.2.5>
    1056:	66 90                	xchg   %ax,%ax

Disassembly of section .text:

0000000000002000 <_start>:
    2000:	f3 0f 1e fa          	endbr64 
    2004:	31 ed                	xor    %ebp,%ebp
    2006:	49 89 d1             	mov    %rdx,%r9
    2009:	5e                   	pop    %rsi
    200a:	48 89 e2             	mov    %rsp,%rdx
    200d:	48 83 e4 f0          	and    $0xfffffffffffffff0,%rsp
    2011:	50                   	push   %rax
    2012:	54                   	push   %rsp
    2013:	45 31 c0             	xor    %r8d,%r8d
    2016:	31 c9                	xor    %ecx,%ecx
    2018:	48 8d 3d 4a 32 00 00 	lea    0x324a(%rip),%rdi        # 5269 <main>
    201f:	ff 15 b3 5f 00 00    	call   *0x5fb3(%rip)        # 7fd8 <__libc_start_main@GLIBC_2.34>
    2025:	f4                   	hlt    
    2026:	66 2e 0f 1f 84 00 00 	cs nopw 0x0(%rax,%rax,1)
    202d:	00 00 00 

0000000000002030 <deregister_tm_clones>:
    2030:	48 8d 3d 39 60 00 00 	lea    0x6039(%rip),%rdi        # 8070 <__TMC_END__>
    2037:	48 8d 05 32 60 00 00 	lea    0x6032(%rip),%rax        # 8070 <__TMC_END__>
    203e:	48 39 f8             	cmp    %rdi,%rax
    2041:	74 15                	je     2058 <deregister_tm_clones+0x28>
    2043:	48 8b 05 96 5f 00 00 	mov    0x5f96(%rip),%rax        # 7fe0 <_ITM_deregisterTMCloneTable@Base>
    204a:	48 85 c0             	test   %rax,%rax
    204d:	74 09                	je     2058 <deregister_tm_clones+0x28>
    204f:	ff e0                	jmp    *%rax
    2051:	0f 1f 80 00 00 00 00 	nopl   0x0(%rax)
    2058:	c3                   	ret    
    2059:	0f 1f 80 00 00 00 00 	nopl   0x0(%rax)

0000000000002060 <register_tm_clones>:
    2060:	48 8d 3d 09 60 00 00 	lea    0x6009(%rip),%rdi        # 8070 <__TMC_END__>
    2067:	48 8d 35 02 60 00 00 	lea    0x6002(%rip),%rsi        # 8070 <__TMC_END__>
    206e:	48 29 fe             	sub    %rdi,%rsi
    2071:	48 89 f0             	mov    %rsi,%rax
    2074:	48 c1 ee 3f          	shr    $0x3f,%rsi
    2078:	48 c1 f8 03          	sar    $0x3,%rax
    207c:	48 01 c6             	add    %rax,%rsi
    207f:	48 d1 fe             	sar    %rsi
    2082:	74 14                	je     2098 <register_tm_clones+0x38>
    2084:	48 8b 05 65 5f 00 00 	mov    0x5f65(%rip),%rax        # 7ff0 <_ITM_registerTMCloneTable@Base>
    208b:	48 85 c0             	test   %rax,%rax
    208e:	74 08                	je     2098 <register_tm_clones+0x38>
    2090:	ff e0                	jmp    *%rax
    2092:	66 0f 1f 44 00 00    	nopw   0x0(%rax,%rax,1)
    2098:	c3                   	ret    
    2099:	0f 1f 80 00 00 00 00 	nopl   0x0(%rax)

00000000000020a0 <__do_global_dtors_aux>:
    20a0:	f3 0f 1e fa          	endbr64 
    20a4:	80 3d d5 5f 00 00 00 	cmpb   $0x0,0x5fd5(%rip)        # 8080 <completed.0>
    20ab:	75 2b                	jne    20d8 <__do_global_dtors_aux+0x38>
    20ad:	55                   	push   %rbp
    20ae:	48 83 3d 42 5f 00 00 	cmpq   $0x0,0x5f42(%rip)        # 7ff8 <__cxa_finalize@GLIBC_2.2.5>
    20b5:	00 
    20b6:	48 89 e5             	mov    %rsp,%rbp
    20b9:	74 0c                	je     20c7 <__do_global_dtors_aux+0x27>
    20bb:	48 8b 3d 46 5f 00 00 	mov    0x5f46(%rip),%rdi        # 8008 <__dso_handle>
    20c2:	e8 89 ef ff ff       	call   1050 <__cxa_finalize@plt>
    20c7:	e8 64 ff ff ff       	call   2030 <deregister_tm_clones>
    20cc:	c6 05 ad 5f 00 00 01 	movb   $0x1,0x5fad(%rip)        # 8080 <completed.0>
    20d3:	5d                   	pop    %rbp
    20d4:	c3                   	ret    
    20d5:	0f 1f 00             	nopl   (%rax)
    20d8:	c3                   	ret    
    20d9:	0f 1f 80 00 00 00 00 	nopl   0x0(%rax)

00000000000020e0 <frame_dummy>:
    20e0:	f3 0f 1e fa          	endbr64 
    20e4:	e9 77 ff ff ff       	jmp    2060 <register_tm_clones>
    20e9:	66 2e 0f 1f 84 00 00 	cs nopw 0x0(%rax,%rax,1)
    20f0:	00 00 00 
    20f3:	66 2e 0f 1f 84 00 00 	cs nopw 0x0(%rax,%rax,1)
    20fa:	00 00 00 
    20fd:	66 2e 0f 1f 84 00 00 	cs nopw 0x0(%rax,%rax,1)
    2104:	00 00 00 
    2107:	66 2e 0f 1f 84 00 00 	cs nopw 0x0(%rax,%rax,1)
    210e:	00 00 00 
    2111:	66 2e 0f 1f 84 00 00 	cs nopw 0x0(%rax,%rax,1)
    2118:	00 00 00 
    211b:	66 2e 0f 1f 84 00 00 	cs nopw 0x0(%rax,%rax,1)
    2122:	00 00 00 
    2125:	66 2e 0f 1f 84 00 00 	cs nopw 0x0(%rax,%rax,1)
    212c:	00 00 00 
    212f:	66 2e 0f 1f 84 00 00 	cs nopw 0x0(%rax,%rax,1)
    2136:	00 00 00 
    2139:	66 2e 0f 1f 84 00 00 	cs nopw 0x0(%rax,%rax,1)
    2140:	00 00 00 
    2143:	66 2e 0f 1f 84 00 00 	cs nopw 0x0(%rax,%rax,1)
    214a:	00 00 00 
    214d:	66 2e 0f 1f 84 00 00 	cs nopw 0x0(%rax,%rax,1)
    2154:	00 00 00 
    2157:	66 2e 0f 1f 84 00 00 	cs nopw 0x0(%rax,%rax,1)
    215e:	00 00 00 
    2161:	66 2e 0f 1f 84 00 00 	cs nopw 0x0(%rax,%rax,1)
    2168:	00 00 00 
    216b:	66 2e 0f 1f 84 00 00 	cs nopw 0x0(%rax,%rax,1)
    2172:	00 00 00 
    2175:	66 2e 0f 1f 84 00 00 	cs nopw 0x0(%rax,%rax,1)
    217c:	00 00 00 
    217f:	66 2e 0f 1f 84 00 00 	cs nopw 0x0(%rax,%rax,1)
    2186:	00 00 00 
    2189:	66 2e 0f 1f 84 00 00 	cs nopw 0x0(%rax,%rax,1)
    2190:	00 00 00 
    2193:	66 2e 0f 1f 84 00 00 	cs nopw 0x0(%rax,%rax,1)
    219a:	00 00 00 
    219d:	66 2e 0f 1f 84 00 00 	cs nopw 0x0(%rax,%rax,1)
    21a4:	00 00 00 
    21a7:	66 2e 0f 1f 84 00 00 	cs nopw 0x0(%rax,%rax,1)
    21ae:	00 00 00 
    21b1:	66 2e 0f 1f 84 00 00 	cs nopw 0x0(%rax,%rax,1)
    21b8:	00 00 00 
    21bb:	66 2e 0f 1f 84 00 00 	cs nopw 0x0(%rax,%rax,1)
    21c2:	00 00 00 
    21c5:	66 2e 0f 1f 84 00 00 	cs nopw 0x0(%rax,%rax,1)
    21cc:	00 00 00 
    21cf:	66 2e 0f 1f 84 00 00 	cs nopw 0x0(%rax,%rax,1)
    21d6:	00 00 00 
    21d9:	66 2e 0f 1f 84 00 00 	cs nopw 0x0(%rax,%rax,1)
    21e0:	00 00 00 
    21e3:	66 2e 0f 1f 84 00 00 	cs nopw 0x0(%rax,%rax,1)
    21ea:	00 00 00 
    21ed:	66 2e 0f 1f 84 00 00 	cs nopw 0x0(%rax,%rax,1)
    21f4:	00 00 00 
    21f7:	66 2e 0f 1f 84 00 00 	cs nopw 0x0(%rax,%rax,1)
    21fe:	00 00 00 
    2201:	66 2e 0f 1f 84 00 00 	cs nopw 0x0(%rax,%rax,1)
    2208:	00 00 00 
    220b:	66 2e 0f 1f 84 00 00 	cs nopw 0x0(%rax,%rax,1)
    2212:	00 00 00 
    2215:	66 2e 0f 1f 84 00 00 	cs nopw 0x0(%rax,%rax,1)
    221c:	00 00 00 
    221f:	66 2e 0f 1f 84 00 00 	cs nopw 0x0(%rax,%rax,1)
    2226:	00 00 00 
    2229:	66 2e 0f 1f 84 00 00 	cs nopw 0x0(%rax,%rax,1)
    2230:	00 00 00 
    2233:	66 2e 0f 1f 84 00 00 	cs nopw 0x0(%rax,%rax,1)
    223a:	00 00 00 
    223d:	66 2e 0f 1f 84 00 00 	cs nopw 0x0(%rax,%rax,1)
    2244:	00 00 00 
    2247:	66 2e 0f 1f 84 00 00 	cs nopw 0x0(%rax,%rax,1)
    224e:	00 00 00 
    2251:	66 2e 0f 1f 84 00 00 	cs nopw 0x0(%rax,%rax,1)
    2258:	00 00 00 
    225b:	66 2e 0f 1f 84 00 00 	cs nopw 0x0(%rax,%rax,1)
    2262:	00 00 00 
    2265:	66 2e 0f 1f 84 00 00 	cs nopw 0x0(%rax,%rax,1)
    226c:	00 00 00 
    226f:	66 2e 0f 1f 84 00 00 	cs nopw 0x0(%rax,%rax,1)
    2276:	00 00 00 
    2279:	66 2e 0f 1f 84 00 00 	cs nopw 0x0(%rax,%rax,1)
    2280:	00 00 00 
    2283:	66 2e 0f 1f 84 00 00 	cs nopw 0x0(%rax,%rax,1)
    228a:	00 00 00 
    228d:	66 2e 0f 1f 84 00 00 	cs nopw 0x0(%rax,%rax,1)
    2294:	00 00 00 
    2297:	66 2e 0f 1f 84 00 00 	cs nopw 0x0(%rax,%rax,1)
    229e:	00 00 00 
    22a1:	66 2e 0f 1f 84 00 00 	cs nopw 0x0(%rax,%rax,1)
    22a8:	00 00 00 
    22ab:	66 2e 0f 1f 84 00 00 	cs nopw 0x0(%rax,%rax,1)
    22b2:	00 00 00 
    22b5:	66 2e 0f 1f 84 00 00 	cs nopw 0x0(%rax,%rax,1)
    22bc:	00 00 00 
    22bf:	66 2e 0f 1f 84 00 00 	cs nopw 0x0(%rax,%rax,1)
    22c6:	00 00 00 
    22c9:	66 2e 0f 1f 84 00 00 	cs nopw 0x0(%rax,%rax,1)
    22d0:	00 00 00 
    22d3:	66 2e 0f 1f 84 00 00 	cs nopw 0x0(%rax,%rax,1)
    22da:	00 00 00 
    22dd:	66 2e 0f 1f 84 00 00 	cs nopw 0x0(%rax,%rax,1)
    22e4:	00 00 00 
    22e7:	66 2e 0f 1f 84 00 00 	cs nopw 0x0(%rax,%rax,1)
    22ee:	00 00 00 
    22f1:	66 2e 0f 1f 84 00 00 	cs nopw 0x0(%rax,%rax,1)
    22f8:	00 00 00 
    22fb:	66 2e 0f 1f 84 00 00 	cs nopw 0x0(%rax,%rax,1)
    2302:	00 00 00 
    2305:	66 2e 0f 1f 84 00 00 	cs nopw 0x0(%rax,%rax,1)
    230c:	00 00 00 
    230f:	66 2e 0f 1f 84 00 00 	cs nopw 0x0(%rax,%rax,1)
    2316:	00 00 00 
    2319:	66 2e 0f 1f 84 00 00 	cs nopw 0x0(%rax,%rax,1)
    2320:	00 00 00 
    2323:	66 2e 0f 1f 84 00 00 	cs nopw 0x0(%rax,%rax,1)
    232a:	00 00 00 
    232d:	66 2e 0f 1f 84 00 00 	cs nopw 0x0(%rax,%rax,1)
    2334:	00 00 00 
    2337:	66 2e 0f 1f 84 00 00 	cs nopw 0x0(%rax,%rax,1)
    233e:	00 00 00 
    2341:	66 2e 0f 1f 84 00 00 	cs nopw 0x0(%rax,%rax,1)
    2348:	00 00 00 
    234b:	66 2e 0f 1f 84 00 00 	cs nopw 0x0(%rax,%rax,1)
    2352:	00 00 00 
    2355:	66 2e 0f 1f 84 00 00 	cs nopw 0x0(%rax,%rax,1)
    235c:	00 00 00 
    235f:	66 2e 0f 1f 84 00 00 	cs nopw 0x0(%rax,%rax,1)
    2366:	00 00 00 
    2369:	66 2e 0f 1f 84 00 00 	cs nopw 0x0(%rax,%rax,1)
    2370:	00 00 00 
    2373:	66 2e 0f 1f 84 00 00 	cs nopw 0x0(%rax,%rax,1)
    237a:	00 00 00 
    237d:	66 2e 0f 1f 84 00 00 	cs nopw 0x0(%rax,%rax,1)
    2384:	00 00 00 
    2387:	66 2e 0f 1f 84 00 00 	cs nopw 0x0(%rax,%rax,1)
    238e:	00 00 00 
    2391:	66 2e 0f 1f 84 00 00 	cs nopw 0x0(%rax,%rax,1)
    2398:	00 00 00 
    239b:	66 2e 0f 1f 84 00 00 	cs nopw 0x0(%rax,%rax,1)
    23a2:	00 00 00 
    23a5:	66 2e 0f 1f 84 00 00 	cs nopw 0x0(%rax,%rax,1)
    23ac:	00 00 00 
    23af:	66 2e 0f 1f 84 00 00 	cs nopw 0x0(%rax,%rax,1)
    23b6:	00 00 00 
    23b9:	66 2e 0f 1f 84 00 00 	cs nopw 0x0(%rax,%rax,1)
    23c0:	00 00 00 
    23c3:	66 2e 0f 1f 84 00 00 	cs nopw 0x0(%rax,%rax,1)
    23ca:	00 00 00 
    23cd:	66 2e 0f 1f 84 00 00 	cs nopw 0x0(%rax,%rax,1)
    23d4:	00 00 00 
    23d7:	66 2e 0f 1f 84 00 00 	cs nopw 0x0(%rax,%rax,1)
    23de:	00 00 00 
    23e1:	66 2e 0f 1f 84 00 00 	cs nopw 0x0(%rax,%rax,1)
    23e8:	00 00 00 
    23eb:	66 2e 0f 1f 84 00 00 	cs nopw 0x0(%rax,%rax,1)
    23f2:	00 00 00 
    23f5:	66 2e 0f 1f 84 00 00 	cs nopw 0x0(%rax,%rax,1)
    23fc:	00 00 00 
    23ff:	66 2e 0f 1f 84 00 00 	cs nopw 0x0(%rax,%rax,1)
    2406:	00 00 00 
    2409:	66 2e 0f 1f 84 00 00 	cs nopw 0x0(%rax,%rax,1)
    2410:	00 00 00 
    2413:	66 2e 0f 1f 84 00 00 	cs nopw 0x0(%rax,%rax,1)
    241a:	00 00 00 
    241d:	66 2e 0f 1f 84 00 00 	cs nopw 0x0(%rax,%rax,1)
    2424:	00 00 00 
    2427:	66 2e 0f 1f 84 00 00 	cs nopw 0x0(%rax,%rax,1)
    242e:	00 00 00 
    2431:	66 2e 0f 1f 84 00 00 	cs nopw 0x0(%rax,%rax,1)
    2438:	00 00 00 
    243b:	66 2e 0f 1f 84 00 00 	cs nopw 0x0(%rax,%rax,1)
    2442:	00 00 00 
    2445:	66 2e 0f 1f 84 00 00 	cs nopw 0x0(%rax,%rax,1)
    244c:	00 00 00 
    244f:	66 2e 0f 1f 84 00 00 	cs nopw 0x0(%rax,%rax,1)
    2456:	00 00 00 
    2459:	66 2e 0f 1f 84 00 00 	cs nopw 0x0(%rax,%rax,1)
    2460:	00 00 00 
    2463:	66 2e 0f 1f 84 00 00 	cs nopw 0x0(%rax,%rax,1)
    246a:	00 00 00 
    246d:	66 2e 0f 1f 84 00 00 	cs nopw 0x0(%rax,%rax,1)
    2474:	00 00 00 
    2477:	66 2e 0f 1f 84 00 00 	cs nopw 0x0(%rax,%rax,1)
    247e:	00 00 00 
    2481:	66 2e 0f 1f 84 00 00 	cs nopw 0x0(%rax,%rax,1)
    2488:	00 00 00 
    248b:	66 2e 0f 1f 84 00 00 	cs nopw 0x0(%rax,%rax,1)
    2492:	00 00 00 
    2495:	66 2e 0f 1f 84 00 00 	cs nopw 0x0(%rax,%rax,1)
    249c:	00 00 00 
    249f:	66 2e 0f 1f 84 00 00 	cs nopw 0x0(%rax,%rax,1)
    24a6:	00 00 00 
    24a9:	66 2e 0f 1f 84 00 00 	cs nopw 0x0(%rax,%rax,1)
    24b0:	00 00 00 
    24b3:	66 2e 0f 1f 84 00 00 	cs nopw 0x0(%rax,%rax,1)
    24ba:	00 00 00 
    24bd:	66 2e 0f 1f 84 00 00 	cs nopw 0x0(%rax,%rax,1)
    24c4:	00 00 00 
    24c7:	66 2e 0f 1f 84 00 00 	cs nopw 0x0(%rax,%rax,1)
    24ce:	00 00 00 
    24d1:	66 2e 0f 1f 84 00 00 	cs nopw 0x0(%rax,%rax,1)
    24d8:	00 00 00 
    24db:	66 2e 0f 1f 84 00 00 	cs nopw 0x0(%rax,%rax,1)
    24e2:	00 00 00 
    24e5:	66 2e 0f 1f 84 00 00 	cs nopw 0x0(%rax,%rax,1)
    24ec:	00 00 00 
    24ef:	66 2e 0f 1f 84 00 00 	cs nopw 0x0(%rax,%rax,1)
    24f6:	00 00 00 
    24f9:	66 2e 0f 1f 84 00 00 	cs nopw 0x0(%rax,%rax,1)
    2500:	00 00 00 
    2503:	66 2e 0f 1f 84 00 00 	cs nopw 0x0(%rax,%rax,1)
    250a:	00 00 00 
    250d:	66 2e 0f 1f 84 00 00 	cs nopw 0x0(%rax,%rax,1)
    2514:	00 00 00 
    2517:	66 2e 0f 1f 84 00 00 	cs nopw 0x0(%rax,%rax,1)
    251e:	00 00 00 
    2521:	66 2e 0f 1f 84 00 00 	cs nopw 0x0(%rax,%rax,1)
    2528:	00 00 00 
    252b:	66 2e 0f 1f 84 00 00 	cs nopw 0x0(%rax,%rax,1)
    2532:	00 00 00 
    2535:	66 2e 0f 1f 84 00 00 	cs nopw 0x0(%rax,%rax,1)
    253c:	00 00 00 
    253f:	66 2e 0f 1f 84 00 00 	cs nopw 0x0(%rax,%rax,1)
    2546:	00 00 00 
    2549:	66 2e 0f 1f 84 00 00 	cs nopw 0x0(%rax,%rax,1)
    2550:	00 00 00 
    2553:	66 2e 0f 1f 84 00 00 	cs nopw 0x0(%rax,%rax,1)
    255a:	00 00 00 
    255d:	66 2e 0f 1f 84 00 00 	cs nopw 0x0(%rax,%rax,1)
    2564:	00 00 00 
    2567:	66 2e 0f 1f 84 00 00 	cs nopw 0x0(%rax,%rax,1)
    256e:	00 00 00 
    2571:	66 2e 0f 1f 84 00 00 	cs nopw 0x0(%rax,%rax,1)
    2578:	00 00 00 
    257b:	66 2e 0f 1f 84 00 00 	cs nopw 0x0(%rax,%rax,1)
    2582:	00 00 00 
    2585:	66 2e 0f 1f 84 00 00 	cs nopw 0x0(%rax,%rax,1)
    258c:	00 00 00 
    258f:	66 2e 0f 1f 84 00 00 	cs nopw 0x0(%rax,%rax,1)
    2596:	00 00 00 
    2599:	66 2e 0f 1f 84 00 00 	cs nopw 0x0(%rax,%rax,1)
    25a0:	00 00 00 
    25a3:	66 2e 0f 1f 84 00 00 	cs nopw 0x0(%rax,%rax,1)
    25aa:	00 00 00 
    25ad:	66 2e 0f 1f 84 00 00 	cs nopw 0x0(%rax,%rax,1)
    25b4:	00 00 00 
    25b7:	66 2e 0f 1f 84 00 00 	cs nopw 0x0(%rax,%rax,1)
    25be:	00 00 00 
    25c1:	66 2e 0f 1f 84 00 00 	cs nopw 0x0(%rax,%rax,1)
    25c8:	00 00 00 
    25cb:	66 2e 0f 1f 84 00 00 	cs nopw 0x0(%rax,%rax,1)
    25d2:	00 00 00 
    25d5:	66 2e 0f 1f 84 00 00 	cs nopw 0x0(%rax,%rax,1)
    25dc:	00 00 00 
    25df:	66 2e 0f 1f 84 00 00 	cs nopw 0x0(%rax,%rax,1)
    25e6:	00 00 00 
    25e9:	66 2e 0f 1f 84 00 00 	cs nopw 0x0(%rax,%rax,1)
    25f0:	00 00 00 
    25f3:	66 2e 0f 1f 84 00 00 	cs nopw 0x0(%rax,%rax,1)
    25fa:	00 00 00 
    25fd:	66 2e 0f 1f 84 00 00 	cs nopw 0x0(%rax,%rax,1)
    2604:	00 00 00 
    2607:	66 2e 0f 1f 84 00 00 	cs nopw 0x0(%rax,%rax,1)
    260e:	00 00 00 
    2611:	66 2e 0f 1f 84 00 00 	cs nopw 0x0(%rax,%rax,1)
    2618:	00 00 00 
    261b:	66 2e 0f 1f 84 00 00 	cs nopw 0x0(%rax,%rax,1)
    2622:	00 00 00 
    2625:	66 2e 0f 1f 84 00 00 	cs nopw 0x0(%rax,%rax,1)
    262c:	00 00 00 
    262f:	66 2e 0f 1f 84 00 00 	cs nopw 0x0(%rax,%rax,1)
    2636:	00 00 00 
    2639:	66 2e 0f 1f 84 00 00 	cs nopw 0x0(%rax,%rax,1)
    2640:	00 00 00 
    2643:	66 2e 0f 1f 84 00 00 	cs nopw 0x0(%rax,%rax,1)
    264a:	00 00 00 
    264d:	66 2e 0f 1f 84 00 00 	cs nopw 0x0(%rax,%rax,1)
    2654:	00 00 00 
    2657:	66 2e 0f 1f 84 00 00 	cs nopw 0x0(%rax,%rax,1)
    265e:	00 00 00 
    2661:	66 2e 0f 1f 84 00 00 	cs nopw 0x0(%rax,%rax,1)
    2668:	00 00 00 
    266b:	66 2e 0f 1f 84 00 00 	cs nopw 0x0(%rax,%rax,1)
    2672:	00 00 00 
    2675:	66 2e 0f 1f 84 00 00 	cs nopw 0x0(%rax,%rax,1)
    267c:	00 00 00 
    267f:	66 2e 0f 1f 84 00 00 	cs nopw 0x0(%rax,%rax,1)
    2686:	00 00 00 
    2689:	66 2e 0f 1f 84 00 00 	cs nopw 0x0(%rax,%rax,1)
    2690:	00 00 00 
    2693:	66 2e 0f 1f 84 00 00 	cs nopw 0x0(%rax,%rax,1)
    269a:	00 00 00 
    269d:	66 2e 0f 1f 84 00 00 	cs nopw 0x0(%rax,%rax,1)
    26a4:	00 00 00 
    26a7:	66 2e 0f 1f 84 00 00 	cs nopw 0x0(%rax,%rax,1)
    26ae:	00 00 00 
    26b1:	66 2e 0f 1f 84 00 00 	cs nopw 0x0(%rax,%rax,1)
    26b8:	00 00 00 
    26bb:	66 2e 0f 1f 84 00 00 	cs nopw 0x0(%rax,%rax,1)
    26c2:	00 00 00 
    26c5:	66 2e 0f 1f 84 00 00 	cs nopw 0x0(%rax,%rax,1)
    26cc:	00 00 00 
    26cf:	66 2e 0f 1f 84 00 00 	cs nopw 0x0(%rax,%rax,1)
    26d6:	00 00 00 
    26d9:	66 2e 0f 1f 84 00 00 	cs nopw 0x0(%rax,%rax,1)
    26e0:	00 00 00 
    26e3:	66 2e 0f 1f 84 00 00 	cs nopw 0x0(%rax,%rax,1)
    26ea:	00 00 00 
    26ed:	66 2e 0f 1f 84 00 00 	cs nopw 0x0(%rax,%rax,1)
    26f4:	00 00 00 
    26f7:	66 2e 0f 1f 84 00 00 	cs nopw 0x0(%rax,%rax,1)
    26fe:	00 00 00 
    2701:	66 2e 0f 1f 84 00 00 	cs nopw 0x0(%rax,%rax,1)
    2708:	00 00 00 
    270b:	66 2e 0f 1f 84 00 00 	cs nopw 0x0(%rax,%rax,1)
    2712:	00 00 00 
    2715:	66 2e 0f 1f 84 00 00 	cs nopw 0x0(%rax,%rax,1)
    271c:	00 00 00 
    271f:	66 2e 0f 1f 84 00 00 	cs nopw 0x0(%rax,%rax,1)
    2726:	00 00 00 
    2729:	66 2e 0f 1f 84 00 00 	cs nopw 0x0(%rax,%rax,1)
    2730:	00 00 00 
    2733:	66 2e 0f 1f 84 00 00 	cs nopw 0x0(%rax,%rax,1)
    273a:	00 00 00 
    273d:	66 2e 0f 1f 84 00 00 	cs nopw 0x0(%rax,%rax,1)
    2744:	00 00 00 
    2747:	66 2e 0f 1f 84 00 00 	cs nopw 0x0(%rax,%rax,1)
    274e:	00 00 00 
    2751:	66 2e 0f 1f 84 00 00 	cs nopw 0x0(%rax,%rax,1)
    2758:	00 00 00 
    275b:	66 2e 0f 1f 84 00 00 	cs nopw 0x0(%rax,%rax,1)
    2762:	00 00 00 
    2765:	66 2e 0f 1f 84 00 00 	cs nopw 0x0(%rax,%rax,1)
    276c:	00 00 00 
    276f:	66 2e 0f 1f 84 00 00 	cs nopw 0x0(%rax,%rax,1)
    2776:	00 00 00 
    2779:	66 2e 0f 1f 84 00 00 	cs nopw 0x0(%rax,%rax,1)
    2780:	00 00 00 
    2783:	66 2e 0f 1f 84 00 00 	cs nopw 0x0(%rax,%rax,1)
    278a:	00 00 00 
    278d:	66 2e 0f 1f 84 00 00 	cs nopw 0x0(%rax,%rax,1)
    2794:	00 00 00 
    2797:	66 2e 0f 1f 84 00 00 	cs nopw 0x0(%rax,%rax,1)
    279e:	00 00 00 
    27a1:	66 2e 0f 1f 84 00 00 	cs nopw 0x0(%rax,%rax,1)
    27a8:	00 00 00 
    27ab:	66 2e 0f 1f 84 00 00 	cs nopw 0x0(%rax,%rax,1)
    27b2:	00 00 00 
    27b5:	66 2e 0f 1f 84 00 00 	cs nopw 0x0(%rax,%rax,1)
    27bc:	00 00 00 
    27bf:	66 2e 0f 1f 84 00 00 	cs nopw 0x0(%rax,%rax,1)
    27c6:	00 00 00 
    27c9:	66 2e 0f 1f 84 00 00 	cs nopw 0x0(%rax,%rax,1)
    27d0:	00 00 00 
    27d3:	66 2e 0f 1f 84 00 00 	cs nopw 0x0(%rax,%rax,1)
    27da:	00 00 00 
    27dd:	66 2e 0f 1f 84 00 00 	cs nopw 0x0(%rax,%rax,1)
    27e4:	00 00 00 
    27e7:	66 2e 0f 1f 84 00 00 	cs nopw 0x0(%rax,%rax,1)
    27ee:	00 00 00 
    27f1:	66 2e 0f 1f 84 00 00 	cs nopw 0x0(%rax,%rax,1)
    27f8:	00 00 00 
    27fb:	66 2e 0f 1f 84 00 00 	cs nopw 0x0(%rax,%rax,1)
    2802:	00 00 00 
    2805:	66 2e 0f 1f 84 00 00 	cs nopw 0x0(%rax,%rax,1)
    280c:	00 00 00 
    280f:	66 2e 0f 1f 84 00 00 	cs nopw 0x0(%rax,%rax,1)
    2816:	00 00 00 
    2819:	66 2e 0f 1f 84 00 00 	cs nopw 0x0(%rax,%rax,1)
    2820:	00 00 00 
    2823:	66 2e 0f 1f 84 00 00 	cs nopw 0x0(%rax,%rax,1)
    282a:	00 00 00 
    282d:	66 2e 0f 1f 84 00 00 	cs nopw 0x0(%rax,%rax,1)
    2834:	00 00 00 
    2837:	66 2e 0f 1f 84 00 00 	cs nopw 0x0(%rax,%rax,1)
    283e:	00 00 00 
    2841:	66 2e 0f 1f 84 00 00 	cs nopw 0x0(%rax,%rax,1)
    2848:	00 00 00 
    284b:	66 2e 0f 1f 84 00 00 	cs nopw 0x0(%rax,%rax,1)
    2852:	00 00 00 
    2855:	66 2e 0f 1f 84 00 00 	cs nopw 0x0(%rax,%rax,1)
    285c:	00 00 00 
    285f:	66 2e 0f 1f 84 00 00 	cs nopw 0x0(%rax,%rax,1)
    2866:	00 00 00 
    2869:	66 2e 0f 1f 84 00 00 	cs nopw 0x0(%rax,%rax,1)
    2870:	00 00 00 
    2873:	66 2e 0f 1f 84 00 00 	cs nopw 0x0(%rax,%rax,1)
    287a:	00 00 00 
    287d:	66 2e 0f 1f 84 00 00 	cs nopw 0x0(%rax,%rax,1)
    2884:	00 00 00 
    2887:	66 2e 0f 1f 84 00 00 	cs nopw 0x0(%rax,%rax,1)
    288e:	00 00 00 
    2891:	66 2e 0f 1f 84 00 00 	cs nopw 0x0(%rax,%rax,1)
    2898:	00 00 00 
    289b:	66 2e 0f 1f 84 00 00 	cs nopw 0x0(%rax,%rax,1)
    28a2:	00 00 00 
    28a5:	66 2e 0f 1f 84 00 00 	cs nopw 0x0(%rax,%rax,1)
    28ac:	00 00 00 
    28af:	66 2e 0f 1f 84 00 00 	cs nopw 0x0(%rax,%rax,1)
    28b6:	00 00 00 
    28b9:	66 2e 0f 1f 84 00 00 	cs nopw 0x0(%rax,%rax,1)
    28c0:	00 00 00 
    28c3:	66 2e 0f 1f 84 00 00 	cs nopw 0x0(%rax,%rax,1)
    28ca:	00 00 00 
    28cd:	66 2e 0f 1f 84 00 00 	cs nopw 0x0(%rax,%rax,1)
    28d4:	00 00 00 
    28d7:	66 2e 0f 1f 84 00 00 	cs nopw 0x0(%rax,%rax,1)
    28de:	00 00 00 
    28e1:	66 2e 0f 1f 84 00 00 	cs nopw 0x0(%rax,%rax,1)
    28e8:	00 00 00 
    28eb:	66 2e 0f 1f 84 00 00 	cs nopw 0x0(%rax,%rax,1)
    28f2:	00 00 00 
    28f5:	66 2e 0f 1f 84 00 00 	cs nopw 0x0(%rax,%rax,1)
    28fc:	00 00 00 
    28ff:	66 2e 0f 1f 84 00 00 	cs nopw 0x0(%rax,%rax,1)
    2906:	00 00 00 
    2909:	66 2e 0f 1f 84 00 00 	cs nopw 0x0(%rax,%rax,1)
    2910:	00 00 00 
    2913:	66 2e 0f 1f 84 00 00 	cs nopw 0x0(%rax,%rax,1)
    291a:	00 00 00 
    291d:	66 2e 0f 1f 84 00 00 	cs nopw 0x0(%rax,%rax,1)
    2924:	00 00 00 
    2927:	66 2e 0f 1f 84 00 00 	cs nopw 0x0(%rax,%rax,1)
    292e:	00 00 00 
    2931:	66 2e 0f 1f 84 00 00 	cs nopw 0x0(%rax,%rax,1)
    2938:	00 00 00 
    293b:	66 2e 0f 1f 84 00 00 	cs nopw 0x0(%rax,%rax,1)
    2942:	00 00 00 
    2945:	66 2e 0f 1f 84 00 00 	cs nopw 0x0(%rax,%rax,1)
    294c:	00 00 00 
    294f:	66 2e 0f 1f 84 00 00 	cs nopw 0x0(%rax,%rax,1)
    2956:	00 00 00 
    2959:	66 2e 0f 1f 84 00 00 	cs nopw 0x0(%rax,%rax,1)
    2960:	00 00 00 
    2963:	66 2e 0f 1f 84 00 00 	cs nopw 0x0(%rax,%rax,1)
    296a:	00 00 00 
    296d:	66 2e 0f 1f 84 00 00 	cs nopw 0x0(%rax,%rax,1)
    2974:	00 00 00 
    2977:	66 2e 0f 1f 84 00 00 	cs nopw 0x0(%rax,%rax,1)
    297e:	00 00 00 
    2981:	66 2e 0f 1f 84 00 00 	cs nopw 0x0(%rax,%rax,1)
    2988:	00 00 00 
    298b:	66 2e 0f 1f 84 00 00 	cs nopw 0x0(%rax,%rax,1)
    2992:	00 00 00 
    2995:	66 2e 0f 1f 84 00 00 	cs nopw 0x0(%rax,%rax,1)
    299c:	00 00 00 
    299f:	66 2e 0f 1f 84 00 00 	cs nopw 0x0(%rax,%rax,1)
    29a6:	00 00 00 
    29a9:	66 2e 0f 1f 84 00 00 	cs nopw 0x0(%rax,%rax,1)
    29b0:	00 00 00 
    29b3:	66 2e 0f 1f 84 00 00 	cs nopw 0x0(%rax,%rax,1)
    29ba:	00 00 00 
    29bd:	66 2e 0f 1f 84 00 00 	cs nopw 0x0(%rax,%rax,1)
    29c4:	00 00 00 
    29c7:	66 2e 0f 1f 84 00 00 	cs nopw 0x0(%rax,%rax,1)
    29ce:	00 00 00 
    29d1:	66 2e 0f 1f 84 00 00 	cs nopw 0x0(%rax,%rax,1)
    29d8:	00 00 00 
    29db:	66 2e 0f 1f 84 00 00 	cs nopw 0x0(%rax,%rax,1)
    29e2:	00 00 00 
    29e5:	66 2e 0f 1f 84 00 00 	cs nopw 0x0(%rax,%rax,1)
    29ec:	00 00 00 
    29ef:	66 2e 0f 1f 84 00 00 	cs nopw 0x0(%rax,%rax,1)
    29f6:	00 00 00 
    29f9:	66 2e 0f 1f 84 00 00 	cs nopw 0x0(%rax,%rax,1)
    2a00:	00 00 00 
    2a03:	66 2e 0f 1f 84 00 00 	cs nopw 0x0(%rax,%rax,1)
    2a0a:	00 00 00 
    2a0d:	66 2e 0f 1f 84 00 00 	cs nopw 0x0(%rax,%rax,1)
    2a14:	00 00 00 
    2a17:	66 2e 0f 1f 84 00 00 	cs nopw 0x0(%rax,%rax,1)
    2a1e:	00 00 00 
    2a21:	66 2e 0f 1f 84 00 00 	cs nopw 0x0(%rax,%rax,1)
    2a28:	00 00 00 
    2a2b:	66 2e 0f 1f 84 00 00 	cs nopw 0x0(%rax,%rax,1)
    2a32:	00 00 00 
    2a35:	66 2e 0f 1f 84 00 00 	cs nopw 0x0(%rax,%rax,1)
    2a3c:	00 00 00 
    2a3f:	66 2e 0f 1f 84 00 00 	cs nopw 0x0(%rax,%rax,1)
    2a46:	00 00 00 
    2a49:	66 2e 0f 1f 84 00 00 	cs nopw 0x0(%rax,%rax,1)
    2a50:	00 00 00 
    2a53:	66 2e 0f 1f 84 00 00 	cs nopw 0x0(%rax,%rax,1)
    2a5a:	00 00 00 
    2a5d:	66 2e 0f 1f 84 00 00 	cs nopw 0x0(%rax,%rax,1)
    2a64:	00 00 00 
    2a67:	66 2e 0f 1f 84 00 00 	cs nopw 0x0(%rax,%rax,1)
    2a6e:	00 00 00 
    2a71:	66 2e 0f 1f 84 00 00 	cs nopw 0x0(%rax,%rax,1)
    2a78:	00 00 00 
    2a7b:	66 2e 0f 1f 84 00 00 	cs nopw 0x0(%rax,%rax,1)
    2a82:	00 00 00 
    2a85:	66 2e 0f 1f 84 00 00 	cs nopw 0x0(%rax,%rax,1)
    2a8c:	00 00 00 
    2a8f:	66 2e 0f 1f 84 00 00 	cs nopw 0x0(%rax,%rax,1)
    2a96:	00 00 00 
    2a99:	66 2e 0f 1f 84 00 00 	cs nopw 0x0(%rax,%rax,1)
    2aa0:	00 00 00 
    2aa3:	66 2e 0f 1f 84 00 00 	cs nopw 0x0(%rax,%rax,1)
    2aaa:	00 00 00 
    2aad:	66 2e 0f 1f 84 00 00 	cs nopw 0x0(%rax,%rax,1)
    2ab4:	00 00 00 
    2ab7:	66 2e 0f 1f 84 00 00 	cs nopw 0x0(%rax,%rax,1)
    2abe:	00 00 00 
    2ac1:	66 2e 0f 1f 84 00 00 	cs nopw 0x0(%rax,%rax,1)
    2ac8:	00 00 00 
    2acb:	66 2e 0f 1f 84 00 00 	cs nopw 0x0(%rax,%rax,1)
    2ad2:	00 00 00 
    2ad5:	66 2e 0f 1f 84 00 00 	cs nopw 0x0(%rax,%rax,1)
    2adc:	00 00 00 
    2adf:	66 2e 0f 1f 84 00 00 	cs nopw 0x0(%rax,%rax,1)
    2ae6:	00 00 00 
    2ae9:	66 2e 0f 1f 84 00 00 	cs nopw 0x0(%rax,%rax,1)
    2af0:	00 00 00 
    2af3:	66 2e 0f 1f 84 00 00 	cs nopw 0x0(%rax,%rax,1)
    2afa:	00 00 00 
    2afd:	66 2e 0f 1f 84 00 00 	cs nopw 0x0(%rax,%rax,1)
    2b04:	00 00 00 
    2b07:	66 2e 0f 1f 84 00 00 	cs nopw 0x0(%rax,%rax,1)
    2b0e:	00 00 00 
    2b11:	66 2e 0f 1f 84 00 00 	cs nopw 0x0(%rax,%rax,1)
    2b18:	00 00 00 
    2b1b:	66 2e 0f 1f 84 00 00 	cs nopw 0x0(%rax,%rax,1)
    2b22:	00 00 00 
    2b25:	66 2e 0f 1f 84 00 00 	cs nopw 0x0(%rax,%rax,1)
    2b2c:	00 00 00 
    2b2f:	66 2e 0f 1f 84 00 00 	cs nopw 0x0(%rax,%rax,1)
    2b36:	00 00 00 
    2b39:	66 2e 0f 1f 84 00 00 	cs nopw 0x0(%rax,%rax,1)
    2b40:	00 00 00 
    2b43:	66 2e 0f 1f 84 00 00 	cs nopw 0x0(%rax,%rax,1)
    2b4a:	00 00 00 
    2b4d:	66 2e 0f 1f 84 00 00 	cs nopw 0x0(%rax,%rax,1)
    2b54:	00 00 00 
    2b57:	66 2e 0f 1f 84 00 00 	cs nopw 0x0(%rax,%rax,1)
    2b5e:	00 00 00 
    2b61:	66 2e 0f 1f 84 00 00 	cs nopw 0x0(%rax,%rax,1)
    2b68:	00 00 00 
    2b6b:	66 2e 0f 1f 84 00 00 	cs nopw 0x0(%rax,%rax,1)
    2b72:	00 00 00 
    2b75:	66 2e 0f 1f 84 00 00 	cs nopw 0x0(%rax,%rax,1)
    2b7c:	00 00 00 
    2b7f:	66 2e 0f 1f 84 00 00 	cs nopw 0x0(%rax,%rax,1)
    2b86:	00 00 00 
    2b89:	66 2e 0f 1f 84 00 00 	cs nopw 0x0(%rax,%rax,1)
    2b90:	00 00 00 
    2b93:	66 2e 0f 1f 84 00 00 	cs nopw 0x0(%rax,%rax,1)
    2b9a:	00 00 00 
    2b9d:	66 2e 0f 1f 84 00 00 	cs nopw 0x0(%rax,%rax,1)
    2ba4:	00 00 00 
    2ba7:	66 2e 0f 1f 84 00 00 	cs nopw 0x0(%rax,%rax,1)
    2bae:	00 00 00 
    2bb1:	66 2e 0f 1f 84 00 00 	cs nopw 0x0(%rax,%rax,1)
    2bb8:	00 00 00 
    2bbb:	66 2e 0f 1f 84 00 00 	cs nopw 0x0(%rax,%rax,1)
    2bc2:	00 00 00 
    2bc5:	66 2e 0f 1f 84 00 00 	cs nopw 0x0(%rax,%rax,1)
    2bcc:	00 00 00 
    2bcf:	66 2e 0f 1f 84 00 00 	cs nopw 0x0(%rax,%rax,1)
    2bd6:	00 00 00 
    2bd9:	66 2e 0f 1f 84 00 00 	cs nopw 0x0(%rax,%rax,1)
    2be0:	00 00 00 
    2be3:	66 2e 0f 1f 84 00 00 	cs nopw 0x0(%rax,%rax,1)
    2bea:	00 00 00 
    2bed:	66 2e 0f 1f 84 00 00 	cs nopw 0x0(%rax,%rax,1)
    2bf4:	00 00 00 
    2bf7:	66 2e 0f 1f 84 00 00 	cs nopw 0x0(%rax,%rax,1)
    2bfe:	00 00 00 
    2c01:	66 2e 0f 1f 84 00 00 	cs nopw 0x0(%rax,%rax,1)
    2c08:	00 00 00 
    2c0b:	66 2e 0f 1f 84 00 00 	cs nopw 0x0(%rax,%rax,1)
    2c12:	00 00 00 
    2c15:	66 2e 0f 1f 84 00 00 	cs nopw 0x0(%rax,%rax,1)
    2c1c:	00 00 00 
    2c1f:	66 2e 0f 1f 84 00 00 	cs nopw 0x0(%rax,%rax,1)
    2c26:	00 00 00 
    2c29:	66 2e 0f 1f 84 00 00 	cs nopw 0x0(%rax,%rax,1)
    2c30:	00 00 00 
    2c33:	66 2e 0f 1f 84 00 00 	cs nopw 0x0(%rax,%rax,1)
    2c3a:	00 00 00 
    2c3d:	66 2e 0f 1f 84 00 00 	cs nopw 0x0(%rax,%rax,1)
    2c44:	00 00 00 
    2c47:	66 2e 0f 1f 84 00 00 	cs nopw 0x0(%rax,%rax,1)
    2c4e:	00 00 00 
    2c51:	66 2e 0f 1f 84 00 00 	cs nopw 0x0(%rax,%rax,1)
    2c58:	00 00 00 
    2c5b:	66 2e 0f 1f 84 00 00 	cs nopw 0x0(%rax,%rax,1)
    2c62:	00 00 00 
    2c65:	66 2e 0f 1f 84 00 00 	cs nopw 0x0(%rax,%rax,1)
    2c6c:	00 00 00 
    2c6f:	66 2e 0f 1f 84 00 00 	cs nopw 0x0(%rax,%rax,1)
    2c76:	00 00 00 
    2c79:	66 2e 0f 1f 84 00 00 	cs nopw 0x0(%rax,%rax,1)
    2c80:	00 00 00 
    2c83:	66 2e 0f 1f 84 00 00 	cs nopw 0x0(%rax,%rax,1)
    2c8a:	00 00 00 
    2c8d:	66 2e 0f 1f 84 00 00 	cs nopw 0x0(%rax,%rax,1)
    2c94:	00 00 00 
    2c97:	66 2e 0f 1f 84 00 00 	cs nopw 0x0(%rax,%rax,1)
    2c9e:	00 00 00 
    2ca1:	66 2e 0f 1f 84 00 00 	cs nopw 0x0(%rax,%rax,1)
    2ca8:	00 00 00 
    2cab:	66 2e 0f 1f 84 00 00 	cs nopw 0x0(%rax,%rax,1)
    2cb2:	00 00 00 
    2cb5:	66 2e 0f 1f 84 00 00 	cs nopw 0x0(%rax,%rax,1)
    2cbc:	00 00 00 
    2cbf:	66 2e 0f 1f 84 00 00 	cs nopw 0x0(%rax,%rax,1)
    2cc6:	00 00 00 
    2cc9:	66 2e 0f 1f 84 00 00 	cs nopw 0x0(%rax,%rax,1)
    2cd0:	00 00 00 
    2cd3:	66 2e 0f 1f 84 00 00 	cs nopw 0x0(%rax,%rax,1)
    2cda:	00 00 00 
    2cdd:	66 2e 0f 1f 84 00 00 	cs nopw 0x0(%rax,%rax,1)
    2ce4:	00 00 00 
    2ce7:	66 2e 0f 1f 84 00 00 	cs nopw 0x0(%rax,%rax,1)
    2cee:	00 00 00 
    2cf1:	66 2e 0f 1f 84 00 00 	cs nopw 0x0(%rax,%rax,1)
    2cf8:	00 00 00 
    2cfb:	66 2e 0f 1f 84 00 00 	cs nopw 0x0(%rax,%rax,1)
    2d02:	00 00 00 
    2d05:	66 2e 0f 1f 84 00 00 	cs nopw 0x0(%rax,%rax,1)
    2d0c:	00 00 00 
    2d0f:	66 2e 0f 1f 84 00 00 	cs nopw 0x0(%rax,%rax,1)
    2d16:	00 00 00 
    2d19:	66 2e 0f 1f 84 00 00 	cs nopw 0x0(%rax,%rax,1)
    2d20:	00 00 00 
    2d23:	66 2e 0f 1f 84 00 00 	cs nopw 0x0(%rax,%rax,1)
    2d2a:	00 00 00 
    2d2d:	66 2e 0f 1f 84 00 00 	cs nopw 0x0(%rax,%rax,1)
    2d34:	00 00 00 
    2d37:	66 2e 0f 1f 84 00 00 	cs nopw 0x0(%rax,%rax,1)
    2d3e:	00 00 00 
    2d41:	66 2e 0f 1f 84 00 00 	cs nopw 0x0(%rax,%rax,1)
    2d48:	00 00 00 
    2d4b:	66 2e 0f 1f 84 00 00 	cs nopw 0x0(%rax,%rax,1)
    2d52:	00 00 00 
    2d55:	66 2e 0f 1f 84 00 00 	cs nopw 0x0(%rax,%rax,1)
    2d5c:	00 00 00 
    2d5f:	66 2e 0f 1f 84 00 00 	cs nopw 0x0(%rax,%rax,1)
    2d66:	00 00 00 
    2d69:	66 2e 0f 1f 84 00 00 	cs nopw 0x0(%rax,%rax,1)
    2d70:	00 00 00 
    2d73:	66 2e 0f 1f 84 00 00 	cs nopw 0x0(%rax,%rax,1)
    2d7a:	00 00 00 
    2d7d:	66 2e 0f 1f 84 00 00 	cs nopw 0x0(%rax,%rax,1)
    2d84:	00 00 00 
    2d87:	66 2e 0f 1f 84 00 00 	cs nopw 0x0(%rax,%rax,1)
    2d8e:	00 00 00 
    2d91:	66 2e 0f 1f 84 00 00 	cs nopw 0x0(%rax,%rax,1)
    2d98:	00 00 00 
    2d9b:	66 2e 0f 1f 84 00 00 	cs nopw 0x0(%rax,%rax,1)
    2da2:	00 00 00 
    2da5:	66 2e 0f 1f 84 00 00 	cs nopw 0x0(%rax,%rax,1)
    2dac:	00 00 00 
    2daf:	66 2e 0f 1f 84 00 00 	cs nopw 0x0(%rax,%rax,1)
    2db6:	00 00 00 
    2db9:	66 2e 0f 1f 84 00 00 	cs nopw 0x0(%rax,%rax,1)
    2dc0:	00 00 00 
    2dc3:	66 2e 0f 1f 84 00 00 	cs nopw 0x0(%rax,%rax,1)
    2dca:	00 00 00 
    2dcd:	66 2e 0f 1f 84 00 00 	cs nopw 0x0(%rax,%rax,1)
    2dd4:	00 00 00 
    2dd7:	66 2e 0f 1f 84 00 00 	cs nopw 0x0(%rax,%rax,1)
    2dde:	00 00 00 
    2de1:	66 2e 0f 1f 84 00 00 	cs nopw 0x0(%rax,%rax,1)
    2de8:	00 00 00 
    2deb:	66 2e 0f 1f 84 00 00 	cs nopw 0x0(%rax,%rax,1)
    2df2:	00 00 00 
    2df5:	66 2e 0f 1f 84 00 00 	cs nopw 0x0(%rax,%rax,1)
    2dfc:	00 00 00 
    2dff:	66 2e 0f 1f 84 00 00 	cs nopw 0x0(%rax,%rax,1)
    2e06:	00 00 00 
    2e09:	66 2e 0f 1f 84 00 00 	cs nopw 0x0(%rax,%rax,1)
    2e10:	00 00 00 
    2e13:	66 2e 0f 1f 84 00 00 	cs nopw 0x0(%rax,%rax,1)
    2e1a:	00 00 00 
    2e1d:	66 2e 0f 1f 84 00 00 	cs nopw 0x0(%rax,%rax,1)
    2e24:	00 00 00 
    2e27:	66 2e 0f 1f 84 00 00 	cs nopw 0x0(%rax,%rax,1)
    2e2e:	00 00 00 
    2e31:	66 2e 0f 1f 84 00 00 	cs nopw 0x0(%rax,%rax,1)
    2e38:	00 00 00 
    2e3b:	66 2e 0f 1f 84 00 00 	cs nopw 0x0(%rax,%rax,1)
    2e42:	00 00 00 
    2e45:	66 2e 0f 1f 84 00 00 	cs nopw 0x0(%rax,%rax,1)
    2e4c:	00 00 00 
    2e4f:	66 2e 0f 1f 84 00 00 	cs nopw 0x0(%rax,%rax,1)
    2e56:	00 00 00 
    2e59:	66 2e 0f 1f 84 00 00 	cs nopw 0x0(%rax,%rax,1)
    2e60:	00 00 00 
    2e63:	66 2e 0f 1f 84 00 00 	cs nopw 0x0(%rax,%rax,1)
    2e6a:	00 00 00 
    2e6d:	66 2e 0f 1f 84 00 00 	cs nopw 0x0(%rax,%rax,1)
    2e74:	00 00 00 
    2e77:	66 2e 0f 1f 84 00 00 	cs nopw 0x0(%rax,%rax,1)
    2e7e:	00 00 00 
    2e81:	66 2e 0f 1f 84 00 00 	cs nopw 0x0(%rax,%rax,1)
    2e88:	00 00 00 
    2e8b:	66 2e 0f 1f 84 00 00 	cs nopw 0x0(%rax,%rax,1)
    2e92:	00 00 00 
    2e95:	66 2e 0f 1f 84 00 00 	cs nopw 0x0(%rax,%rax,1)
    2e9c:	00 00 00 
    2e9f:	66 2e 0f 1f 84 00 00 	cs nopw 0x0(%rax,%rax,1)
    2ea6:	00 00 00 
    2ea9:	66 2e 0f 1f 84 00 00 	cs nopw 0x0(%rax,%rax,1)
    2eb0:	00 00 00 
    2eb3:	66 2e 0f 1f 84 00 00 	cs nopw 0x0(%rax,%rax,1)
    2eba:	00 00 00 
    2ebd:	66 2e 0f 1f 84 00 00 	cs nopw 0x0(%rax,%rax,1)
    2ec4:	00 00 00 
    2ec7:	66 2e 0f 1f 84 00 00 	cs nopw 0x0(%rax,%rax,1)
    2ece:	00 00 00 
    2ed1:	66 2e 0f 1f 84 00 00 	cs nopw 0x0(%rax,%rax,1)
    2ed8:	00 00 00 
    2edb:	66 2e 0f 1f 84 00 00 	cs nopw 0x0(%rax,%rax,1)
    2ee2:	00 00 00 
    2ee5:	66 2e 0f 1f 84 00 00 	cs nopw 0x0(%rax,%rax,1)
    2eec:	00 00 00 
    2eef:	66 2e 0f 1f 84 00 00 	cs nopw 0x0(%rax,%rax,1)
    2ef6:	00 00 00 
    2ef9:	66 2e 0f 1f 84 00 00 	cs nopw 0x0(%rax,%rax,1)
    2f00:	00 00 00 
    2f03:	66 2e 0f 1f 84 00 00 	cs nopw 0x0(%rax,%rax,1)
    2f0a:	00 00 00 
    2f0d:	66 2e 0f 1f 84 00 00 	cs nopw 0x0(%rax,%rax,1)
    2f14:	00 00 00 
    2f17:	66 2e 0f 1f 84 00 00 	cs nopw 0x0(%rax,%rax,1)
    2f1e:	00 00 00 
    2f21:	66 2e 0f 1f 84 00 00 	cs nopw 0x0(%rax,%rax,1)
    2f28:	00 00 00 
    2f2b:	66 2e 0f 1f 84 00 00 	cs nopw 0x0(%rax,%rax,1)
    2f32:	00 00 00 
    2f35:	66 2e 0f 1f 84 00 00 	cs nopw 0x0(%rax,%rax,1)
    2f3c:	00 00 00 
    2f3f:	66 2e 0f 1f 84 00 00 	cs nopw 0x0(%rax,%rax,1)
    2f46:	00 00 00 
    2f49:	66 2e 0f 1f 84 00 00 	cs nopw 0x0(%rax,%rax,1)
    2f50:	00 00 00 
    2f53:	66 2e 0f 1f 84 00 00 	cs nopw 0x0(%rax,%rax,1)
    2f5a:	00 00 00 
    2f5d:	66 2e 0f 1f 84 00 00 	cs nopw 0x0(%rax,%rax,1)
    2f64:	00 00 00 
    2f67:	66 2e 0f 1f 84 00 00 	cs nopw 0x0(%rax,%rax,1)
    2f6e:	00 00 00 
    2f71:	66 2e 0f 1f 84 00 00 	cs nopw 0x0(%rax,%rax,1)
    2f78:	00 00 00 
    2f7b:	66 2e 0f 1f 84 00 00 	cs nopw 0x0(%rax,%rax,1)
    2f82:	00 00 00 
    2f85:	66 2e 0f 1f 84 00 00 	cs nopw 0x0(%rax,%rax,1)
    2f8c:	00 00 00 
    2f8f:	66 2e 0f 1f 84 00 00 	cs nopw 0x0(%rax,%rax,1)
    2f96:	00 00 00 
    2f99:	66 2e 0f 1f 84 00 00 	cs nopw 0x0(%rax,%rax,1)
    2fa0:	00 00 00 
    2fa3:	66 2e 0f 1f 84 00 00 	cs nopw 0x0(%rax,%rax,1)
    2faa:	00 00 00 
    2fad:	66 2e 0f 1f 84 00 00 	cs nopw 0x0(%rax,%rax,1)
    2fb4:	00 00 00 
    2fb7:	66 2e 0f 1f 84 00 00 	cs nopw 0x0(%rax,%rax,1)
    2fbe:	00 00 00 
    2fc1:	66 2e 0f 1f 84 00 00 	cs nopw 0x0(%rax,%rax,1)
    2fc8:	00 00 00 
    2fcb:	66 2e 0f 1f 84 00 00 	cs nopw 0x0(%rax,%rax,1)
    2fd2:	00 00 00 
    2fd5:	66 2e 0f 1f 84 00 00 	cs nopw 0x0(%rax,%rax,1)
    2fdc:	00 00 00 
    2fdf:	66 2e 0f 1f 84 00 00 	cs nopw 0x0(%rax,%rax,1)
    2fe6:	00 00 00 
    2fe9:	66 2e 0f 1f 84 00 00 	cs nopw 0x0(%rax,%rax,1)
    2ff0:	00 00 00 
    2ff3:	66 2e 0f 1f 84 00 00 	cs nopw 0x0(%rax,%rax,1)
    2ffa:	00 00 00 
    2ffd:	0f 1f 00             	nopl   (%rax)

0000000000003000 <cml_main>:
    3000:	55                   	push   %rbp
    3001:	48 89 e5             	mov    %rsp,%rbp
    3004:	48 8d 3d 45 00 00 00 	lea    0x45(%rip),%rdi        # 3050 <cml__Init_0>
    300b:	48 8b 35 fe 4f 00 00 	mov    0x4ffe(%rip),%rsi        # 8010 <cml_heap>
    3012:	48 8b 15 ff 4f 00 00 	mov    0x4fff(%rip),%rdx        # 8018 <cml_stack>
    3019:	48 8b 0d 00 50 00 00 	mov    0x5000(%rip),%rcx        # 8020 <cml_stackend>
    3020:	e9 ec 1f 00 00       	jmp    5011 <cml_enter>
    3025:	66 66 2e 0f 1f 84 00 	data16 cs nopw 0x0(%rax,%rax,1)
    302c:	00 00 00 00 

0000000000003030 <cake_clear>:
    3030:	50                   	push   %rax
    3031:	57                   	push   %rdi
    3032:	e8 5e 21 00 00       	call   5195 <cml_clear>
    3037:	5f                   	pop    %rdi
    3038:	c3                   	ret    
    3039:	0f 1f 80 00 00 00 00 	nopl   0x0(%rax)

0000000000003040 <cake_exit>:
    3040:	e9 e9 1f 00 00       	jmp    502e <cml_return>
    3045:	66 66 2e 0f 1f 84 00 	data16 cs nopw 0x0(%rax,%rax,1)
    304c:	00 00 00 00 

0000000000003050 <cml__Init_0>:
    3050:	48 89 c8             	mov    %rcx,%rax
    3053:	48 29 f0             	sub    %rsi,%rax
    3056:	48 c1 e8 04          	shr    $0x4,%rax
    305a:	48 c1 e0 03          	shl    $0x3,%rax
    305e:	48 01 f0             	add    %rsi,%rax
    3061:	41 b8 f8 07 00 00    	mov    $0x7f8,%r8d
    3067:	4c 01 c6             	add    %r8,%rsi
    306a:	4c 29 c1             	sub    %r8,%rcx
    306d:	48 39 f2             	cmp    %rsi,%rdx
    3070:	0f 82 12 00 00 00    	jb     3088 <cml__Init_0+0x38>
    3076:	48 39 d1             	cmp    %rdx,%rcx
    3079:	0f 83 03 00 00 00    	jae    3082 <cml__Init_0+0x32>
    307f:	48 89 c2             	mov    %rax,%rdx
    3082:	e9 05 00 00 00       	jmp    308c <cml__Init_0+0x3c>
    3087:	90                   	nop
    3088:	48 89 c2             	mov    %rax,%rdx
    308b:	90                   	nop
    308c:	b8 f8 07 00 00       	mov    $0x7f8,%eax
    3091:	48 29 c6             	sub    %rax,%rsi
    3094:	48 01 c1             	add    %rax,%rcx
    3097:	48 89 d0             	mov    %rdx,%rax
    309a:	48 29 f0             	sub    %rsi,%rax
    309d:	49 b8 f8 ff ff ff ff 	movabs $0xfffffffffffff8,%r8
    30a4:	ff ff 00 
    30a7:	49 39 c0             	cmp    %rax,%r8
    30aa:	0f 83 06 00 00 00    	jae    30b6 <cml__Init_0+0x66>
    30b0:	48 89 f2             	mov    %rsi,%rdx
    30b3:	4c 01 c2             	add    %r8,%rdx
    30b6:	48 29 f2             	sub    %rsi,%rdx
    30b9:	48 c1 ea 04          	shr    $0x4,%rdx
    30bd:	48 c1 e2 04          	shl    $0x4,%rdx
    30c1:	48 01 f2             	add    %rsi,%rdx
    30c4:	49 89 d0             	mov    %rdx,%r8
    30c7:	49 29 f0             	sub    %rsi,%r8
    30ca:	49 d1 e8             	shr    %r8
    30cd:	49 89 f6             	mov    %rsi,%r14
    30d0:	4c 01 c6             	add    %r8,%rsi
    30d3:	49 89 cc             	mov    %rcx,%r12
    30d6:	49 89 d5             	mov    %rdx,%r13
    30d9:	49 8b 16             	mov    (%r14),%rdx
    30dc:	48 c1 ea 03          	shr    $0x3,%rdx
    30e0:	4c 89 f0             	mov    %r14,%rax
    30e3:	48 83 c0 08          	add    $0x8,%rax
    30e7:	48 8b 08             	mov    (%rax),%rcx
    30ea:	48 83 c0 08          	add    $0x8,%rax
    30ee:	4c 8b 08             	mov    (%rax),%r9
    30f1:	48 83 c0 08          	add    $0x8,%rax
    30f5:	48 8b 18             	mov    (%rax),%rbx
    30f8:	48 83 c0 08          	add    $0x8,%rax
    30fc:	48 8b 38             	mov    (%rax),%rdi
    30ff:	b8 08 00 00 00       	mov    $0x8,%eax
    3104:	49 29 c4             	sub    %rax,%r12
    3107:	b8 00 00 00 00       	mov    $0x0,%eax
    310c:	49 89 04 24          	mov    %rax,(%r12)
    3110:	b8 00 00 00 00       	mov    $0x0,%eax
    3115:	49 89 45 00          	mov    %rax,0x0(%r13)
    3119:	49 83 c5 08          	add    $0x8,%r13
    311d:	b8 00 00 00 00       	mov    $0x0,%eax
    3122:	49 89 45 00          	mov    %rax,0x0(%r13)
    3126:	49 83 c5 08          	add    $0x8,%r13
    312a:	b8 00 00 00 00       	mov    $0x0,%eax
    312f:	49 89 45 00          	mov    %rax,0x0(%r13)
    3133:	49 83 c5 08          	add    $0x8,%r13
    3137:	b8 00 00 00 00       	mov    $0x0,%eax
    313c:	49 89 45 00          	mov    %rax,0x0(%r13)
    3140:	49 83 c5 08          	add    $0x8,%r13
    3144:	b8 00 00 00 00       	mov    $0x0,%eax
    3149:	49 89 45 00          	mov    %rax,0x0(%r13)
    314d:	49 83 c5 08          	add    $0x8,%r13
    3151:	b8 00 00 00 00       	mov    $0x0,%eax
    3156:	49 89 45 00          	mov    %rax,0x0(%r13)
    315a:	49 83 c5 08          	add    $0x8,%r13
    315e:	b8 00 00 00 00       	mov    $0x0,%eax
    3163:	49 89 45 00          	mov    %rax,0x0(%r13)
    3167:	49 83 c5 08          	add    $0x8,%r13
    316b:	b8 00 00 00 00       	mov    $0x0,%eax
    3170:	49 89 45 00          	mov    %rax,0x0(%r13)
    3174:	49 83 c5 08          	add    $0x8,%r13
    3178:	b8 00 00 00 00       	mov    $0x0,%eax
    317d:	49 89 45 00          	mov    %rax,0x0(%r13)
    3181:	49 83 c5 08          	add    $0x8,%r13
    3185:	b8 00 00 00 00       	mov    $0x0,%eax
    318a:	49 89 45 00          	mov    %rax,0x0(%r13)
    318e:	49 83 c5 08          	add    $0x8,%r13
    3192:	b8 00 00 00 00       	mov    $0x0,%eax
    3197:	49 89 45 00          	mov    %rax,0x0(%r13)
    319b:	49 83 c5 08          	add    $0x8,%r13
    319f:	b8 00 00 00 00       	mov    $0x0,%eax
    31a4:	49 89 45 00          	mov    %rax,0x0(%r13)
    31a8:	49 83 c5 08          	add    $0x8,%r13
    31ac:	b8 00 00 00 00       	mov    $0x0,%eax
    31b1:	49 89 45 00          	mov    %rax,0x0(%r13)
    31b5:	49 83 c5 08          	add    $0x8,%r13
    31b9:	b8 00 00 00 00       	mov    $0x0,%eax
    31be:	49 89 45 00          	mov    %rax,0x0(%r13)
    31c2:	49 83 c5 08          	add    $0x8,%r13
    31c6:	b8 00 00 00 00       	mov    $0x0,%eax
    31cb:	49 89 45 00          	mov    %rax,0x0(%r13)
    31cf:	49 83 c5 08          	add    $0x8,%r13
    31d3:	b8 00 00 00 00       	mov    $0x0,%eax
    31d8:	49 89 45 00          	mov    %rax,0x0(%r13)
    31dc:	49 83 c5 08          	add    $0x8,%r13
    31e0:	b8 00 00 00 00       	mov    $0x0,%eax
    31e5:	49 89 45 00          	mov    %rax,0x0(%r13)
    31e9:	49 83 c5 08          	add    $0x8,%r13
    31ed:	b8 00 00 00 00       	mov    $0x0,%eax
    31f2:	49 89 45 00          	mov    %rax,0x0(%r13)
    31f6:	49 83 c5 08          	add    $0x8,%r13
    31fa:	b8 00 00 00 00       	mov    $0x0,%eax
    31ff:	49 89 45 00          	mov    %rax,0x0(%r13)
    3203:	49 83 c5 08          	add    $0x8,%r13
    3207:	b8 00 00 00 00       	mov    $0x0,%eax
    320c:	49 89 45 00          	mov    %rax,0x0(%r13)
    3210:	49 83 c5 08          	add    $0x8,%r13
    3214:	b8 00 00 00 00       	mov    $0x0,%eax
    3219:	49 89 45 00          	mov    %rax,0x0(%r13)
    321d:	49 83 c5 08          	add    $0x8,%r13
    3221:	b8 00 00 00 00       	mov    $0x0,%eax
    3226:	49 89 45 00          	mov    %rax,0x0(%r13)
    322a:	49 83 c5 08          	add    $0x8,%r13
    322e:	b8 00 00 00 00       	mov    $0x0,%eax
    3233:	49 89 45 00          	mov    %rax,0x0(%r13)
    3237:	49 83 c5 08          	add    $0x8,%r13
    323b:	b8 00 00 00 00       	mov    $0x0,%eax
    3240:	49 89 45 00          	mov    %rax,0x0(%r13)
    3244:	49 83 c5 08          	add    $0x8,%r13
    3248:	b8 00 00 00 00       	mov    $0x0,%eax
    324d:	49 89 45 00          	mov    %rax,0x0(%r13)
    3251:	49 83 c5 08          	add    $0x8,%r13
    3255:	b8 00 00 00 00       	mov    $0x0,%eax
    325a:	49 89 45 00          	mov    %rax,0x0(%r13)
    325e:	49 83 c5 08          	add    $0x8,%r13
    3262:	b8 00 00 00 00       	mov    $0x0,%eax
    3267:	49 89 45 00          	mov    %rax,0x0(%r13)
    326b:	49 83 c5 08          	add    $0x8,%r13
    326f:	b8 00 00 00 00       	mov    $0x0,%eax
    3274:	49 89 45 00          	mov    %rax,0x0(%r13)
    3278:	49 83 c5 08          	add    $0x8,%r13
    327c:	b8 00 00 00 00       	mov    $0x0,%eax
    3281:	49 89 45 00          	mov    %rax,0x0(%r13)
    3285:	49 83 c5 08          	add    $0x8,%r13
    3289:	b8 00 00 00 00       	mov    $0x0,%eax
    328e:	49 89 45 00          	mov    %rax,0x0(%r13)
    3292:	49 83 c5 08          	add    $0x8,%r13
    3296:	b8 00 00 00 00       	mov    $0x0,%eax
    329b:	49 89 45 00          	mov    %rax,0x0(%r13)
    329f:	49 83 c5 08          	add    $0x8,%r13
    32a3:	b8 00 00 00 00       	mov    $0x0,%eax
    32a8:	49 89 45 00          	mov    %rax,0x0(%r13)
    32ac:	49 83 c5 08          	add    $0x8,%r13
    32b0:	4d 89 4d 00          	mov    %r9,0x0(%r13)
    32b4:	49 83 c5 08          	add    $0x8,%r13
    32b8:	49 89 4d 00          	mov    %rcx,0x0(%r13)
    32bc:	49 83 c5 08          	add    $0x8,%r13
    32c0:	49 89 7d 00          	mov    %rdi,0x0(%r13)
    32c4:	49 83 c5 08          	add    $0x8,%r13
    32c8:	49 89 5d 00          	mov    %rbx,0x0(%r13)
    32cc:	49 83 c5 08          	add    $0x8,%r13
    32d0:	b8 00 00 00 00       	mov    $0x0,%eax
    32d5:	49 89 45 00          	mov    %rax,0x0(%r13)
    32d9:	49 83 c5 08          	add    $0x8,%r13
    32dd:	49 89 55 00          	mov    %rdx,0x0(%r13)
    32e1:	49 83 c5 08          	add    $0x8,%r13
    32e5:	b8 00 00 00 00       	mov    $0x0,%eax
    32ea:	49 89 45 00          	mov    %rax,0x0(%r13)
    32ee:	49 83 c5 08          	add    $0x8,%r13
    32f2:	4d 89 75 00          	mov    %r14,0x0(%r13)
    32f6:	49 83 c5 08          	add    $0x8,%r13
    32fa:	b8 00 00 00 00       	mov    $0x0,%eax
    32ff:	49 89 45 00          	mov    %rax,0x0(%r13)
    3303:	49 83 c5 08          	add    $0x8,%r13
    3307:	b8 00 00 00 00       	mov    $0x0,%eax
    330c:	49 89 45 00          	mov    %rax,0x0(%r13)
    3310:	49 83 c5 08          	add    $0x8,%r13
    3314:	b8 00 00 00 00       	mov    $0x0,%eax
    3319:	49 89 45 00          	mov    %rax,0x0(%r13)
    331d:	49 83 c5 08          	add    $0x8,%r13
    3321:	49 89 75 00          	mov    %rsi,0x0(%r13)
    3325:	49 83 c5 08          	add    $0x8,%r13
    3329:	49 89 75 00          	mov    %rsi,0x0(%r13)
    332d:	49 83 c5 08          	add    $0x8,%r13
    3331:	4d 89 45 00          	mov    %r8,0x0(%r13)
    3335:	49 83 c5 08          	add    $0x8,%r13
    3339:	49 89 75 00          	mov    %rsi,0x0(%r13)
    333d:	49 83 c5 08          	add    $0x8,%r13
    3341:	4d 89 75 00          	mov    %r14,0x0(%r13)
    3345:	49 83 c5 08          	add    $0x8,%r13
    3349:	48 8d 05 06 00 00 00 	lea    0x6(%rip),%rax        # 3356 <cml__Halt0_1>
    3350:	e9 41 04 00 00       	jmp    3796 <cml_main_6>
    3355:	90                   	nop

0000000000003356 <cml__Halt0_1>:
    3356:	bf 00 00 00 00       	mov    $0x0,%edi
    335b:	90                   	nop
    335c:	e9 df fc ff ff       	jmp    3040 <cake_exit>
    3361:	90                   	nop

0000000000003362 <cml__Halt2_2>:
    3362:	bf 02 00 00 00       	mov    $0x2,%edi
    3367:	90                   	nop
    3368:	e9 d3 fc ff ff       	jmp    3040 <cake_exit>
    336d:	90                   	nop

000000000000336e <cml__GC_3>:
    336e:	49 89 7d d0          	mov    %rdi,-0x30(%r13)
    3372:	49 89 45 f8          	mov    %rax,-0x8(%r13)
    3376:	bf 00 00 00 00       	mov    $0x0,%edi
    337b:	48 89 fe             	mov    %rdi,%rsi
    337e:	49 8b 55 e0          	mov    -0x20(%r13),%rdx
    3382:	48 89 f9             	mov    %rdi,%rcx
    3385:	4d 8b 45 c0          	mov    -0x40(%r13),%r8
    3389:	49 89 f9             	mov    %rdi,%r9
    338c:	49 89 ff             	mov    %rdi,%r15
    338f:	49 f7 c0 01 00 00 00 	test   $0x1,%r8
    3396:	0f 84 96 00 00 00    	je     3432 <cml__GC_3+0xc4>
    339c:	4c 89 c0             	mov    %r8,%rax
    339f:	4c 89 f7             	mov    %r14,%rdi
    33a2:	48 c1 e8 0c          	shr    $0xc,%rax
    33a6:	48 c1 e0 03          	shl    $0x3,%rax
    33aa:	48 01 f8             	add    %rdi,%rax
    33ad:	48 8b 38             	mov    (%rax),%rdi
    33b0:	48 f7 c7 03 00 00 00 	test   $0x3,%rdi
    33b7:	0f 84 61 00 00 00    	je     341e <cml__GC_3+0xb0>
    33bd:	48 c1 ef 20          	shr    $0x20,%rdi
    33c1:	48 83 c7 01          	add    $0x1,%rdi
    33c5:	49 89 f9             	mov    %rdi,%r9
    33c8:	48 89 c6             	mov    %rax,%rsi
    33cb:	48 89 f8             	mov    %rdi,%rax
    33ce:	48 83 f8 00          	cmp    $0x0,%rax
    33d2:	0f 84 18 00 00 00    	je     33f0 <cml__GC_3+0x82>
    33d8:	48 8b 3e             	mov    (%rsi),%rdi
    33db:	48 83 c6 08          	add    $0x8,%rsi
    33df:	48 83 e8 01          	sub    $0x1,%rax
    33e3:	48 89 3a             	mov    %rdi,(%rdx)
    33e6:	48 83 c2 08          	add    $0x8,%rdx
    33ea:	e9 df ff ff ff       	jmp    33ce <cml__GC_3+0x60>
    33ef:	90                   	nop
    33f0:	4c 89 c8             	mov    %r9,%rax
    33f3:	48 c1 e0 03          	shl    $0x3,%rax
    33f7:	48 29 c6             	sub    %rax,%rsi
    33fa:	48 89 c8             	mov    %rcx,%rax
    33fd:	48 c1 e0 02          	shl    $0x2,%rax
    3401:	48 89 06             	mov    %rax,(%rsi)
    3404:	48 89 cf             	mov    %rcx,%rdi
    3407:	49 c1 e0 37          	shl    $0x37,%r8
    340b:	49 c1 e8 37          	shr    $0x37,%r8
    340f:	48 c1 e7 0c          	shl    $0xc,%rdi
    3413:	49 09 f8             	or     %rdi,%r8
    3416:	4c 01 c9             	add    %r9,%rcx
    3419:	e9 14 00 00 00       	jmp    3432 <cml__GC_3+0xc4>
    341e:	48 c1 ef 02          	shr    $0x2,%rdi
    3422:	48 c1 e7 0c          	shl    $0xc,%rdi
    3426:	49 c1 e0 37          	shl    $0x37,%r8
    342a:	49 c1 e8 37          	shr    $0x37,%r8
    342e:	49 09 f8             	or     %rdi,%r8
    3431:	90                   	nop
    3432:	4d 89 45 c0          	mov    %r8,-0x40(%r13)
    3436:	4c 89 c3             	mov    %r8,%rbx
    3439:	48 c1 eb 0c          	shr    $0xc,%rbx
    343d:	48 c1 e3 03          	shl    $0x3,%rbx
    3441:	4d 8b 5d e0          	mov    -0x20(%r13),%r11
    3445:	4c 01 db             	add    %r11,%rbx
    3448:	49 89 5d b8          	mov    %rbx,-0x48(%r13)
    344c:	bb 00 00 00 00       	mov    $0x0,%ebx
    3451:	4d 89 fb             	mov    %r15,%r11
    3454:	4d 01 e3             	add    %r12,%r11
    3457:	4d 8b 1b             	mov    (%r11),%r11
    345a:	49 89 df             	mov    %rbx,%r15
    345d:	90                   	nop
    345e:	4d 85 db             	test   %r11,%r11
    3461:	0f 84 35 01 00 00    	je     359c <cml__GC_3+0x22e>
    3467:	4c 89 d8             	mov    %r11,%rax
    346a:	49 83 eb 01          	sub    $0x1,%r11
    346e:	49 83 c7 08          	add    $0x8,%r15
    3472:	48 85 c0             	test   %rax,%rax
    3475:	0f 84 13 01 00 00    	je     358e <cml__GC_3+0x220>
    347b:	49 8b 5d a8          	mov    -0x58(%r13),%rbx
    347f:	4c 01 db             	add    %r11,%rbx
    3482:	48 c1 e3 03          	shl    $0x3,%rbx
    3486:	48 8b 1b             	mov    (%rbx),%rbx
    3489:	90                   	nop
    348a:	48 83 fb 02          	cmp    $0x2,%rbx
    348e:	0f 82 de 00 00 00    	jb     3572 <cml__GC_3+0x204>
    3494:	48 f7 c3 01 00 00 00 	test   $0x1,%rbx
    349b:	0f 84 c3 00 00 00    	je     3564 <cml__GC_3+0x1f6>
    34a1:	4d 89 f8             	mov    %r15,%r8
    34a4:	4d 01 e0             	add    %r12,%r8
    34a7:	4d 8b 00             	mov    (%r8),%r8
    34aa:	48 d1 eb             	shr    %rbx
    34ad:	49 f7 c0 01 00 00 00 	test   $0x1,%r8
    34b4:	0f 84 96 00 00 00    	je     3550 <cml__GC_3+0x1e2>
    34ba:	4c 89 c0             	mov    %r8,%rax
    34bd:	4c 89 f7             	mov    %r14,%rdi
    34c0:	48 c1 e8 0c          	shr    $0xc,%rax
    34c4:	48 c1 e0 03          	shl    $0x3,%rax
    34c8:	48 01 f8             	add    %rdi,%rax
    34cb:	48 8b 38             	mov    (%rax),%rdi
    34ce:	48 f7 c7 03 00 00 00 	test   $0x3,%rdi
    34d5:	0f 84 61 00 00 00    	je     353c <cml__GC_3+0x1ce>
    34db:	48 c1 ef 20          	shr    $0x20,%rdi
    34df:	48 83 c7 01          	add    $0x1,%rdi
    34e3:	49 89 f9             	mov    %rdi,%r9
    34e6:	48 89 c6             	mov    %rax,%rsi
    34e9:	48 89 f8             	mov    %rdi,%rax
    34ec:	48 83 f8 00          	cmp    $0x0,%rax
    34f0:	0f 84 18 00 00 00    	je     350e <cml__GC_3+0x1a0>
    34f6:	48 8b 3e             	mov    (%rsi),%rdi
    34f9:	48 83 c6 08          	add    $0x8,%rsi
    34fd:	48 83 e8 01          	sub    $0x1,%rax
    3501:	48 89 3a             	mov    %rdi,(%rdx)
    3504:	48 83 c2 08          	add    $0x8,%rdx
    3508:	e9 df ff ff ff       	jmp    34ec <cml__GC_3+0x17e>
    350d:	90                   	nop
    350e:	4c 89 c8             	mov    %r9,%rax
    3511:	48 c1 e0 03          	shl    $0x3,%rax
    3515:	48 29 c6             	sub    %rax,%rsi
    3518:	48 89 c8             	mov    %rcx,%rax
    351b:	48 c1 e0 02          	shl    $0x2,%rax
    351f:	48 89 06             	mov    %rax,(%rsi)
    3522:	48 89 cf             	mov    %rcx,%rdi
    3525:	49 c1 e0 37          	shl    $0x37,%r8
    3529:	49 c1 e8 37          	shr    $0x37,%r8
    352d:	48 c1 e7 0c          	shl    $0xc,%rdi
    3531:	49 09 f8             	or     %rdi,%r8
    3534:	4c 01 c9             	add    %r9,%rcx
    3537:	e9 14 00 00 00       	jmp    3550 <cml__GC_3+0x1e2>
    353c:	48 c1 ef 02          	shr    $0x2,%rdi
    3540:	48 c1 e7 0c          	shl    $0xc,%rdi
    3544:	49 c1 e0 37          	shl    $0x37,%r8
    3548:	49 c1 e8 37          	shr    $0x37,%r8
    354c:	49 09 f8             	or     %rdi,%r8
    354f:	90                   	nop
    3550:	4d 01 fc             	add    %r15,%r12
    3553:	4d 89 04 24          	mov    %r8,(%r12)
    3557:	4d 29 fc             	sub    %r15,%r12
    355a:	49 83 c7 08          	add    $0x8,%r15
    355e:	e9 09 00 00 00       	jmp    356c <cml__GC_3+0x1fe>
    3563:	90                   	nop
    3564:	48 d1 eb             	shr    %rbx
    3567:	49 83 c7 08          	add    $0x8,%r15
    356b:	90                   	nop
    356c:	e9 19 ff ff ff       	jmp    348a <cml__GC_3+0x11c>
    3571:	90                   	nop
    3572:	49 8b 45 a8          	mov    -0x58(%r13),%rax
    3576:	4c 01 d8             	add    %r11,%rax
    3579:	48 c1 e0 03          	shl    $0x3,%rax
    357d:	48 8b 00             	mov    (%rax),%rax
    3580:	49 83 c3 01          	add    $0x1,%r11
    3584:	48 c1 e8 3f          	shr    $0x3f,%rax
    3588:	e9 e5 fe ff ff       	jmp    3472 <cml__GC_3+0x104>
    358d:	90                   	nop
    358e:	4d 89 fb             	mov    %r15,%r11
    3591:	4d 01 e3             	add    %r12,%r11
    3594:	4d 8b 1b             	mov    (%r11),%r11
    3597:	e9 c2 fe ff ff       	jmp    345e <cml__GC_3+0xf0>
    359c:	4d 8b 7d e0          	mov    -0x20(%r13),%r15
    35a0:	4c 39 fa             	cmp    %r15,%rdx
    35a3:	0f 84 f3 00 00 00    	je     369c <cml__GC_3+0x32e>
    35a9:	49 8b 1f             	mov    (%r15),%rbx
    35ac:	48 f7 c3 04 00 00 00 	test   $0x4,%rbx
    35b3:	0f 84 15 00 00 00    	je     35ce <cml__GC_3+0x260>
    35b9:	48 c1 eb 20          	shr    $0x20,%rbx
    35bd:	48 83 c3 01          	add    $0x1,%rbx
    35c1:	48 c1 e3 03          	shl    $0x3,%rbx
    35c5:	49 01 df             	add    %rbx,%r15
    35c8:	e9 c9 00 00 00       	jmp    3696 <cml__GC_3+0x328>
    35cd:	90                   	nop
    35ce:	48 c1 eb 20          	shr    $0x20,%rbx
    35d2:	49 83 c7 08          	add    $0x8,%r15
    35d6:	48 83 fb 00          	cmp    $0x0,%rbx
    35da:	0f 84 b6 00 00 00    	je     3696 <cml__GC_3+0x328>
    35e0:	4d 8b 07             	mov    (%r15),%r8
    35e3:	48 83 eb 01          	sub    $0x1,%rbx
    35e7:	49 f7 c0 01 00 00 00 	test   $0x1,%r8
    35ee:	0f 84 96 00 00 00    	je     368a <cml__GC_3+0x31c>
    35f4:	4c 89 c0             	mov    %r8,%rax
    35f7:	4c 89 f7             	mov    %r14,%rdi
    35fa:	48 c1 e8 0c          	shr    $0xc,%rax
    35fe:	48 c1 e0 03          	shl    $0x3,%rax
    3602:	48 01 f8             	add    %rdi,%rax
    3605:	48 8b 38             	mov    (%rax),%rdi
    3608:	48 f7 c7 03 00 00 00 	test   $0x3,%rdi
    360f:	0f 84 61 00 00 00    	je     3676 <cml__GC_3+0x308>
    3615:	48 c1 ef 20          	shr    $0x20,%rdi
    3619:	48 83 c7 01          	add    $0x1,%rdi
    361d:	49 89 f9             	mov    %rdi,%r9
    3620:	48 89 c6             	mov    %rax,%rsi
    3623:	48 89 f8             	mov    %rdi,%rax
    3626:	48 83 f8 00          	cmp    $0x0,%rax
    362a:	0f 84 18 00 00 00    	je     3648 <cml__GC_3+0x2da>
    3630:	48 8b 3e             	mov    (%rsi),%rdi
    3633:	48 83 c6 08          	add    $0x8,%rsi
    3637:	48 83 e8 01          	sub    $0x1,%rax
    363b:	48 89 3a             	mov    %rdi,(%rdx)
    363e:	48 83 c2 08          	add    $0x8,%rdx
    3642:	e9 df ff ff ff       	jmp    3626 <cml__GC_3+0x2b8>
    3647:	90                   	nop
    3648:	4c 89 c8             	mov    %r9,%rax
    364b:	48 c1 e0 03          	shl    $0x3,%rax
    364f:	48 29 c6             	sub    %rax,%rsi
    3652:	48 89 c8             	mov    %rcx,%rax
    3655:	48 c1 e0 02          	shl    $0x2,%rax
    3659:	48 89 06             	mov    %rax,(%rsi)
    365c:	48 89 cf             	mov    %rcx,%rdi
    365f:	49 c1 e0 37          	shl    $0x37,%r8
    3663:	49 c1 e8 37          	shr    $0x37,%r8
    3667:	48 c1 e7 0c          	shl    $0xc,%rdi
    366b:	49 09 f8             	or     %rdi,%r8
    366e:	4c 01 c9             	add    %r9,%rcx
    3671:	e9 14 00 00 00       	jmp    368a <cml__GC_3+0x31c>
    3676:	48 c1 ef 02          	shr    $0x2,%rdi
    367a:	48 c1 e7 0c          	shl    $0xc,%rdi
    367e:	49 c1 e0 37          	shl    $0x37,%r8
    3682:	49 c1 e8 37          	shr    $0x37,%r8
    3686:	49 09 f8             	or     %rdi,%r8
    3689:	90                   	nop
    368a:	4d 89 07             	mov    %r8,(%r15)
    368d:	49 83 c7 08          	add    $0x8,%r15
    3691:	e9 40 ff ff ff       	jmp    35d6 <cml__GC_3+0x268>
    3696:	e9 05 ff ff ff       	jmp    35a0 <cml__GC_3+0x232>
    369b:	90                   	nop
    369c:	4c 89 f0             	mov    %r14,%rax
    369f:	49 8b 7d e0          	mov    -0x20(%r13),%rdi
    36a3:	49 8b 75 e8          	mov    -0x18(%r13),%rsi
    36a7:	48 01 fe             	add    %rdi,%rsi
    36aa:	49 89 fe             	mov    %rdi,%r14
    36ad:	49 89 45 e0          	mov    %rax,-0x20(%r13)
    36b1:	49 8b 45 f8          	mov    -0x8(%r13),%rax
    36b5:	4d 89 7d f8          	mov    %r15,-0x8(%r13)
    36b9:	49 89 75 f0          	mov    %rsi,-0x10(%r13)
    36bd:	49 89 75 d8          	mov    %rsi,-0x28(%r13)
    36c1:	49 8b 7d d0          	mov    -0x30(%r13),%rdi
    36c5:	4c 29 fe             	sub    %r15,%rsi
    36c8:	48 39 fe             	cmp    %rdi,%rsi
    36cb:	0f 83 0b 00 00 00    	jae    36dc <cml__GC_3+0x36e>
    36d1:	bf 01 00 00 00       	mov    $0x1,%edi
    36d6:	e9 65 f9 ff ff       	jmp    3040 <cake_exit>
    36db:	90                   	nop
    36dc:	ff e0                	jmp    *%rax

00000000000036de <cml__Raise_4>:
    36de:	4d 8b 5d c8          	mov    -0x38(%r13),%r11
    36e2:	49 c1 e3 03          	shl    $0x3,%r11
    36e6:	4d 89 ec             	mov    %r13,%r12
    36e9:	4d 01 dc             	add    %r11,%r12
    36ec:	4d 8b 5c 24 10       	mov    0x10(%r12),%r11
    36f1:	4d 89 5d c8          	mov    %r11,-0x38(%r13)
    36f5:	4d 8b 5c 24 08       	mov    0x8(%r12),%r11
    36fa:	49 83 c4 18          	add    $0x18,%r12
    36fe:	41 ff e3             	jmp    *%r11
    3701:	90                   	nop

0000000000003702 <cml__StoreConsts_5>:
    3702:	4d 8b 55 a8          	mov    -0x58(%r13),%r10
    3706:	49 01 fa             	add    %rdi,%r10
    3709:	49 c1 e2 03          	shl    $0x3,%r10
    370d:	49 8b 3a             	mov    (%r10),%rdi
    3710:	49 83 c2 08          	add    $0x8,%r10
    3714:	48 83 ff 00          	cmp    $0x0,%rdi
    3718:	0f 8d 3e 00 00 00    	jge    375c <cml__StoreConsts_5+0x5a>
    371e:	48 83 ff 01          	cmp    $0x1,%rdi
    3722:	0f 84 28 00 00 00    	je     3750 <cml__StoreConsts_5+0x4e>
    3728:	4d 8b 1a             	mov    (%r10),%r11
    372b:	49 83 c2 08          	add    $0x8,%r10
    372f:	48 f7 c7 01 00 00 00 	test   $0x1,%rdi
    3736:	0f 84 04 00 00 00    	je     3740 <cml__StoreConsts_5+0x3e>
    373c:	49 01 d3             	add    %rdx,%r11
    373f:	90                   	nop
    3740:	48 d1 ef             	shr    %rdi
    3743:	4c 89 1e             	mov    %r11,(%rsi)
    3746:	48 83 c6 08          	add    $0x8,%rsi
    374a:	e9 cf ff ff ff       	jmp    371e <cml__StoreConsts_5+0x1c>
    374f:	90                   	nop
    3750:	49 8b 3a             	mov    (%r10),%rdi
    3753:	49 83 c2 08          	add    $0x8,%r10
    3757:	e9 b8 ff ff ff       	jmp    3714 <cml__StoreConsts_5+0x12>
    375c:	48 83 ff 01          	cmp    $0x1,%rdi
    3760:	0f 84 28 00 00 00    	je     378e <cml__StoreConsts_5+0x8c>
    3766:	4d 8b 1a             	mov    (%r10),%r11
    3769:	49 83 c2 08          	add    $0x8,%r10
    376d:	48 f7 c7 01 00 00 00 	test   $0x1,%rdi
    3774:	0f 84 04 00 00 00    	je     377e <cml__StoreConsts_5+0x7c>
    377a:	49 01 d3             	add    %rdx,%r11
    377d:	90                   	nop
    377e:	48 d1 ef             	shr    %rdi
    3781:	4c 89 1e             	mov    %r11,(%rsi)
    3784:	48 83 c6 08          	add    $0x8,%rsi
    3788:	e9 cf ff ff ff       	jmp    375c <cml__StoreConsts_5+0x5a>
    378d:	90                   	nop
    378e:	49 89 fb             	mov    %rdi,%r11
    3791:	49 89 fa             	mov    %rdi,%r10
    3794:	ff e0                	jmp    *%rax

0000000000003796 <cml_main_6>:
    3796:	49 83 ec 18          	sub    $0x18,%r12
    379a:	4d 39 ec             	cmp    %r13,%r12
    379d:	0f 82 bf fb ff ff    	jb     3362 <cml__Halt2_2>
    37a3:	90                   	nop
    37a4:	48 89 c1             	mov    %rax,%rcx
    37a7:	be 08 00 00 00       	mov    $0x8,%esi
    37ac:	48 89 f7             	mov    %rsi,%rdi
    37af:	4c 01 f7             	add    %r14,%rdi
    37b2:	b8 20 00 00 00       	mov    $0x20,%eax
    37b7:	48 f7 e6             	mul    %rsi
    37ba:	48 01 f8             	add    %rdi,%rax
    37bd:	be 00 00 00 00       	mov    $0x0,%esi
    37c2:	48 89 30             	mov    %rsi,(%rax)
    37c5:	b8 20 00 00 00       	mov    $0x20,%eax
    37ca:	be 08 00 00 00       	mov    $0x8,%esi
    37cf:	48 f7 e6             	mul    %rsi
    37d2:	48 01 f8             	add    %rdi,%rax
    37d5:	48 83 c0 08          	add    $0x8,%rax
    37d9:	be 00 00 00 00       	mov    $0x0,%esi
    37de:	48 89 30             	mov    %rsi,(%rax)
    37e1:	49 89 4c 24 10       	mov    %rcx,0x10(%r12)
    37e6:	49 89 7c 24 08       	mov    %rdi,0x8(%r12)
    37eb:	41 bb 02 00 00 00    	mov    $0x2,%r11d
    37f1:	4d 89 1c 24          	mov    %r11,(%r12)
    37f5:	49 83 ec 18          	sub    $0x18,%r12
    37f9:	4d 39 ec             	cmp    %r13,%r12
    37fc:	0f 82 60 fb ff ff    	jb     3362 <cml__Halt2_2>
    3802:	41 bb 01 00 00 00    	mov    $0x1,%r11d
    3808:	4d 89 1c 24          	mov    %r11,(%r12)
    380c:	4c 8d 1d 45 00 00 00 	lea    0x45(%rip),%r11        # 3858 <cml_main_6+0xc2>
    3813:	4d 89 5c 24 08       	mov    %r11,0x8(%r12)
    3818:	4d 8b 5d c8          	mov    -0x38(%r13),%r11
    381c:	4d 89 5c 24 10       	mov    %r11,0x10(%r12)
    3821:	4d 89 e3             	mov    %r12,%r11
    3824:	4d 29 eb             	sub    %r13,%r11
    3827:	49 c1 eb 03          	shr    $0x3,%r11
    382b:	4d 89 5d c8          	mov    %r11,-0x38(%r13)
    382f:	48 8d 05 06 00 00 00 	lea    0x6(%rip),%rax        # 383c <cml_main_6+0xa6>
    3836:	e9 55 01 00 00       	jmp    3990 <cml_enqueue_9>
    383b:	90                   	nop
    383c:	4d 8b 5c 24 10       	mov    0x10(%r12),%r11
    3841:	4d 89 5d c8          	mov    %r11,-0x38(%r13)
    3845:	49 83 c4 18          	add    $0x18,%r12
    3849:	49 8b 54 24 10       	mov    0x10(%r12),%rdx
    384e:	49 8b 44 24 08       	mov    0x8(%r12),%rax
    3853:	e9 10 00 00 00       	jmp    3868 <cml_main_6+0xd2>
    3858:	49 8b 54 24 10       	mov    0x10(%r12),%rdx
    385d:	49 8b 44 24 08       	mov    0x8(%r12),%rax
    3862:	e9 77 fe ff ff       	jmp    36de <cml__Raise_4>
    3867:	90                   	nop
    3868:	48 89 c7             	mov    %rax,%rdi
    386b:	be 01 00 00 00       	mov    $0x1,%esi
    3870:	49 89 54 24 10       	mov    %rdx,0x10(%r12)
    3875:	41 bb 03 00 00 00    	mov    $0x3,%r11d
    387b:	4d 89 1c 24          	mov    %r11,(%r12)
    387f:	49 83 ec 18          	sub    $0x18,%r12
    3883:	4d 39 ec             	cmp    %r13,%r12
    3886:	0f 82 d6 fa ff ff    	jb     3362 <cml__Halt2_2>
    388c:	41 bb 01 00 00 00    	mov    $0x1,%r11d
    3892:	4d 89 1c 24          	mov    %r11,(%r12)
    3896:	4c 8d 1d 41 00 00 00 	lea    0x41(%rip),%r11        # 38de <cml_main_6+0x148>
    389d:	4d 89 5c 24 08       	mov    %r11,0x8(%r12)
    38a2:	4d 8b 5d c8          	mov    -0x38(%r13),%r11
    38a6:	4d 89 5c 24 10       	mov    %r11,0x10(%r12)
    38ab:	4d 89 e3             	mov    %r12,%r11
    38ae:	4d 29 eb             	sub    %r13,%r11
    38b1:	49 c1 eb 03          	shr    $0x3,%r11
    38b5:	4d 89 5d c8          	mov    %r11,-0x38(%r13)
    38b9:	48 8d 05 06 00 00 00 	lea    0x6(%rip),%rax        # 38c6 <cml_main_6+0x130>
    38c0:	e9 cb 00 00 00       	jmp    3990 <cml_enqueue_9>
    38c5:	90                   	nop
    38c6:	4d 8b 5c 24 10       	mov    0x10(%r12),%r11
    38cb:	4d 89 5d c8          	mov    %r11,-0x38(%r13)
    38cf:	49 83 c4 18          	add    $0x18,%r12
    38d3:	49 8b 44 24 10       	mov    0x10(%r12),%rax
    38d8:	e9 0b 00 00 00       	jmp    38e8 <cml_main_6+0x152>
    38dd:	90                   	nop
    38de:	49 8b 44 24 10       	mov    0x10(%r12),%rax
    38e3:	e9 f6 fd ff ff       	jmp    36de <cml__Raise_4>
    38e8:	bf 00 00 00 00       	mov    $0x0,%edi
    38ed:	49 83 c4 18          	add    $0x18,%r12
    38f1:	ff e0                	jmp    *%rax
    38f3:	90                   	nop

00000000000038f4 <cml_isEmpty_7>:
    38f4:	49 89 c0             	mov    %rax,%r8
    38f7:	b8 20 00 00 00       	mov    $0x20,%eax
    38fc:	be 08 00 00 00       	mov    $0x8,%esi
    3901:	48 f7 e6             	mul    %rsi
    3904:	48 01 f8             	add    %rdi,%rax
    3907:	48 8b 08             	mov    (%rax),%rcx
    390a:	b8 20 00 00 00       	mov    $0x20,%eax
    390f:	be 08 00 00 00       	mov    $0x8,%esi
    3914:	48 f7 e6             	mul    %rsi
    3917:	48 01 f8             	add    %rdi,%rax
    391a:	48 83 c0 08          	add    $0x8,%rax
    391e:	48 8b 00             	mov    (%rax),%rax
    3921:	48 39 c1             	cmp    %rax,%rcx
    3924:	0f 84 0a 00 00 00    	je     3934 <cml_isEmpty_7+0x40>
    392a:	bf 00 00 00 00       	mov    $0x0,%edi
    392f:	e9 06 00 00 00       	jmp    393a <cml_isEmpty_7+0x46>
    3934:	bf 01 00 00 00       	mov    $0x1,%edi
    3939:	90                   	nop
    393a:	41 ff e0             	jmp    *%r8
    393d:	90                   	nop

000000000000393e <cml_isFull_8>:
    393e:	49 89 c0             	mov    %rax,%r8
    3941:	b8 20 00 00 00       	mov    $0x20,%eax
    3946:	be 08 00 00 00       	mov    $0x8,%esi
    394b:	48 f7 e6             	mul    %rsi
    394e:	48 01 f8             	add    %rdi,%rax
    3951:	48 8b 08             	mov    (%rax),%rcx
    3954:	b8 20 00 00 00       	mov    $0x20,%eax
    3959:	be 08 00 00 00       	mov    $0x8,%esi
    395e:	48 f7 e6             	mul    %rsi
    3961:	48 01 f8             	add    %rdi,%rax
    3964:	48 83 c0 08          	add    $0x8,%rax
    3968:	48 8b 00             	mov    (%rax),%rax
    396b:	48 83 c0 01          	add    $0x1,%rax
    396f:	48 83 e0 1f          	and    $0x1f,%rax
    3973:	48 39 c1             	cmp    %rax,%rcx
    3976:	0f 84 0a 00 00 00    	je     3986 <cml_isFull_8+0x48>
    397c:	bf 00 00 00 00       	mov    $0x0,%edi
    3981:	e9 06 00 00 00       	jmp    398c <cml_isFull_8+0x4e>
    3986:	bf 01 00 00 00       	mov    $0x1,%edi
    398b:	90                   	nop
    398c:	41 ff e0             	jmp    *%r8
    398f:	90                   	nop

0000000000003990 <cml_enqueue_9>:
    3990:	49 83 ec 20          	sub    $0x20,%r12
    3994:	4d 39 ec             	cmp    %r13,%r12
    3997:	0f 82 c5 f9 ff ff    	jb     3362 <cml__Halt2_2>
    399d:	90                   	nop
    399e:	49 89 44 24 18       	mov    %rax,0x18(%r12)
    39a3:	49 89 74 24 10       	mov    %rsi,0x10(%r12)
    39a8:	49 89 7c 24 08       	mov    %rdi,0x8(%r12)
    39ad:	41 bb 04 00 00 00    	mov    $0x4,%r11d
    39b3:	4d 89 1c 24          	mov    %r11,(%r12)
    39b7:	49 83 ec 18          	sub    $0x18,%r12
    39bb:	4d 39 ec             	cmp    %r13,%r12
    39be:	0f 82 9e f9 ff ff    	jb     3362 <cml__Halt2_2>
    39c4:	41 bb 01 00 00 00    	mov    $0x1,%r11d
    39ca:	4d 89 1c 24          	mov    %r11,(%r12)
    39ce:	4c 8d 1d bf 00 00 00 	lea    0xbf(%rip),%r11        # 3a94 <cml_enqueue_9+0x104>
    39d5:	4d 89 5c 24 08       	mov    %r11,0x8(%r12)
    39da:	4d 8b 5d c8          	mov    -0x38(%r13),%r11
    39de:	4d 89 5c 24 10       	mov    %r11,0x10(%r12)
    39e3:	4d 89 e3             	mov    %r12,%r11
    39e6:	4d 29 eb             	sub    %r13,%r11
    39e9:	49 c1 eb 03          	shr    $0x3,%r11
    39ed:	4d 89 5d c8          	mov    %r11,-0x38(%r13)
    39f1:	48 8d 05 06 00 00 00 	lea    0x6(%rip),%rax        # 39fe <cml_enqueue_9+0x6e>
    39f8:	e9 41 ff ff ff       	jmp    393e <cml_isFull_8>
    39fd:	90                   	nop
    39fe:	4d 8b 5c 24 10       	mov    0x10(%r12),%r11
    3a03:	4d 89 5d c8          	mov    %r11,-0x38(%r13)
    3a07:	49 83 c4 18          	add    $0x18,%r12
    3a0b:	4d 8b 4c 24 18       	mov    0x18(%r12),%r9
    3a10:	4d 8b 44 24 10       	mov    0x10(%r12),%r8
    3a15:	49 8b 4c 24 08       	mov    0x8(%r12),%rcx
    3a1a:	48 83 ff 00          	cmp    $0x0,%rdi
    3a1e:	0f 84 12 00 00 00    	je     3a36 <cml_enqueue_9+0xa6>
    3a24:	48 bf ff ff ff ff ff 	movabs $0xffffffffffffffff,%rdi
    3a2b:	ff ff ff 
    3a2e:	49 83 c4 20          	add    $0x20,%r12
    3a32:	41 ff e1             	jmp    *%r9
    3a35:	90                   	nop
    3a36:	b8 20 00 00 00       	mov    $0x20,%eax
    3a3b:	be 08 00 00 00       	mov    $0x8,%esi
    3a40:	48 f7 e6             	mul    %rsi
    3a43:	48 89 cf             	mov    %rcx,%rdi
    3a46:	48 01 f8             	add    %rdi,%rax
    3a49:	48 83 c0 08          	add    $0x8,%rax
    3a4d:	48 8b 38             	mov    (%rax),%rdi
    3a50:	48 89 f8             	mov    %rdi,%rax
    3a53:	be 08 00 00 00       	mov    $0x8,%esi
    3a58:	48 f7 e6             	mul    %rsi
    3a5b:	48 89 ce             	mov    %rcx,%rsi
    3a5e:	48 01 f0             	add    %rsi,%rax
    3a61:	4c 89 00             	mov    %r8,(%rax)
    3a64:	48 83 c7 01          	add    $0x1,%rdi
    3a68:	48 83 e7 1f          	and    $0x1f,%rdi
    3a6c:	b8 20 00 00 00       	mov    $0x20,%eax
    3a71:	be 08 00 00 00       	mov    $0x8,%esi
    3a76:	48 f7 e6             	mul    %rsi
    3a79:	48 01 c8             	add    %rcx,%rax
    3a7c:	48 83 c0 08          	add    $0x8,%rax
    3a80:	48 89 38             	mov    %rdi,(%rax)
    3a83:	bf 00 00 00 00       	mov    $0x0,%edi
    3a88:	49 83 c4 20          	add    $0x20,%r12
    3a8c:	41 ff e1             	jmp    *%r9
    3a8f:	e9 06 00 00 00       	jmp    3a9a <cml_dequeue_10>
    3a94:	e9 45 fc ff ff       	jmp    36de <cml__Raise_4>
    3a99:	90                   	nop

0000000000003a9a <cml_dequeue_10>:
    3a9a:	49 83 ec 18          	sub    $0x18,%r12
    3a9e:	4d 39 ec             	cmp    %r13,%r12
    3aa1:	0f 82 bb f8 ff ff    	jb     3362 <cml__Halt2_2>
    3aa7:	90                   	nop
    3aa8:	49 89 44 24 10       	mov    %rax,0x10(%r12)
    3aad:	49 89 7c 24 08       	mov    %rdi,0x8(%r12)
    3ab2:	41 bb 05 00 00 00    	mov    $0x5,%r11d
    3ab8:	4d 89 1c 24          	mov    %r11,(%r12)
    3abc:	49 83 ec 18          	sub    $0x18,%r12
    3ac0:	4d 39 ec             	cmp    %r13,%r12
    3ac3:	0f 82 99 f8 ff ff    	jb     3362 <cml__Halt2_2>
    3ac9:	41 bb 01 00 00 00    	mov    $0x1,%r11d
    3acf:	4d 89 1c 24          	mov    %r11,(%r12)
    3ad3:	4c 8d 1d ac 00 00 00 	lea    0xac(%rip),%r11        # 3b86 <cml_dequeue_10+0xec>
    3ada:	4d 89 5c 24 08       	mov    %r11,0x8(%r12)
    3adf:	4d 8b 5d c8          	mov    -0x38(%r13),%r11
    3ae3:	4d 89 5c 24 10       	mov    %r11,0x10(%r12)
    3ae8:	4d 89 e3             	mov    %r12,%r11
    3aeb:	4d 29 eb             	sub    %r13,%r11
    3aee:	49 c1 eb 03          	shr    $0x3,%r11
    3af2:	4d 89 5d c8          	mov    %r11,-0x38(%r13)
    3af6:	48 8d 05 05 00 00 00 	lea    0x5(%rip),%rax        # 3b02 <cml_dequeue_10+0x68>
    3afd:	e9 f2 fd ff ff       	jmp    38f4 <cml_isEmpty_7>
    3b02:	4d 8b 5c 24 10       	mov    0x10(%r12),%r11
    3b07:	4d 89 5d c8          	mov    %r11,-0x38(%r13)
    3b0b:	49 83 c4 18          	add    $0x18,%r12
    3b0f:	4d 8b 4c 24 10       	mov    0x10(%r12),%r9
    3b14:	49 8b 4c 24 08       	mov    0x8(%r12),%rcx
    3b19:	48 83 ff 00          	cmp    $0x0,%rdi
    3b1d:	0f 84 11 00 00 00    	je     3b34 <cml_dequeue_10+0x9a>
    3b23:	48 bf ff ff ff ff ff 	movabs $0xffffffffffffffff,%rdi
    3b2a:	ff ff ff 
    3b2d:	49 83 c4 18          	add    $0x18,%r12
    3b31:	41 ff e1             	jmp    *%r9
    3b34:	b8 20 00 00 00       	mov    $0x20,%eax
    3b39:	be 08 00 00 00       	mov    $0x8,%esi
    3b3e:	48 f7 e6             	mul    %rsi
    3b41:	48 89 cf             	mov    %rcx,%rdi
    3b44:	48 01 f8             	add    %rdi,%rax
    3b47:	4c 8b 00             	mov    (%rax),%r8
    3b4a:	4c 89 c0             	mov    %r8,%rax
    3b4d:	be 08 00 00 00       	mov    $0x8,%esi
    3b52:	48 f7 e6             	mul    %rsi
    3b55:	48 89 cf             	mov    %rcx,%rdi
    3b58:	48 01 f8             	add    %rdi,%rax
    3b5b:	48 8b 38             	mov    (%rax),%rdi
    3b5e:	49 83 c0 01          	add    $0x1,%r8
    3b62:	49 83 e0 1f          	and    $0x1f,%r8
    3b66:	b8 20 00 00 00       	mov    $0x20,%eax
    3b6b:	be 08 00 00 00       	mov    $0x8,%esi
    3b70:	48 f7 e6             	mul    %rsi
    3b73:	48 01 c8             	add    %rcx,%rax
    3b76:	4c 89 00             	mov    %r8,(%rax)
    3b79:	49 83 c4 18          	add    $0x18,%r12
    3b7d:	41 ff e1             	jmp    *%r9
    3b80:	e9 07 00 00 00       	jmp    3b8c <cake_codebuffer_begin>
    3b85:	90                   	nop
    3b86:	e9 53 fb ff ff       	jmp    36de <cml__Raise_4>
    3b8b:	90                   	nop

0000000000003b8c <cake_codebuffer_begin>:
    3b8c:	e9 6f 04 00 00       	jmp    4000 <cake_codebuffer_end>
    3b91:	66 66 2e 0f 1f 84 00 	data16 cs nopw 0x0(%rax,%rax,1)
    3b98:	00 00 00 00 
    3b9c:	66 66 2e 0f 1f 84 00 	data16 cs nopw 0x0(%rax,%rax,1)
    3ba3:	00 00 00 00 
    3ba7:	66 66 2e 0f 1f 84 00 	data16 cs nopw 0x0(%rax,%rax,1)
    3bae:	00 00 00 00 
    3bb2:	66 66 2e 0f 1f 84 00 	data16 cs nopw 0x0(%rax,%rax,1)
    3bb9:	00 00 00 00 
    3bbd:	66 66 2e 0f 1f 84 00 	data16 cs nopw 0x0(%rax,%rax,1)
    3bc4:	00 00 00 00 
    3bc8:	66 66 2e 0f 1f 84 00 	data16 cs nopw 0x0(%rax,%rax,1)
    3bcf:	00 00 00 00 
    3bd3:	66 66 2e 0f 1f 84 00 	data16 cs nopw 0x0(%rax,%rax,1)
    3bda:	00 00 00 00 
    3bde:	66 66 2e 0f 1f 84 00 	data16 cs nopw 0x0(%rax,%rax,1)
    3be5:	00 00 00 00 
    3be9:	66 66 2e 0f 1f 84 00 	data16 cs nopw 0x0(%rax,%rax,1)
    3bf0:	00 00 00 00 
    3bf4:	66 66 2e 0f 1f 84 00 	data16 cs nopw 0x0(%rax,%rax,1)
    3bfb:	00 00 00 00 
    3bff:	66 66 2e 0f 1f 84 00 	data16 cs nopw 0x0(%rax,%rax,1)
    3c06:	00 00 00 00 
    3c0a:	66 66 2e 0f 1f 84 00 	data16 cs nopw 0x0(%rax,%rax,1)
    3c11:	00 00 00 00 
    3c15:	66 66 2e 0f 1f 84 00 	data16 cs nopw 0x0(%rax,%rax,1)
    3c1c:	00 00 00 00 
    3c20:	66 66 2e 0f 1f 84 00 	data16 cs nopw 0x0(%rax,%rax,1)
    3c27:	00 00 00 00 
    3c2b:	66 66 2e 0f 1f 84 00 	data16 cs nopw 0x0(%rax,%rax,1)
    3c32:	00 00 00 00 
    3c36:	66 66 2e 0f 1f 84 00 	data16 cs nopw 0x0(%rax,%rax,1)
    3c3d:	00 00 00 00 
    3c41:	66 66 2e 0f 1f 84 00 	data16 cs nopw 0x0(%rax,%rax,1)
    3c48:	00 00 00 00 
    3c4c:	66 66 2e 0f 1f 84 00 	data16 cs nopw 0x0(%rax,%rax,1)
    3c53:	00 00 00 00 
    3c57:	66 66 2e 0f 1f 84 00 	data16 cs nopw 0x0(%rax,%rax,1)
    3c5e:	00 00 00 00 
    3c62:	66 66 2e 0f 1f 84 00 	data16 cs nopw 0x0(%rax,%rax,1)
    3c69:	00 00 00 00 
    3c6d:	66 66 2e 0f 1f 84 00 	data16 cs nopw 0x0(%rax,%rax,1)
    3c74:	00 00 00 00 
    3c78:	66 66 2e 0f 1f 84 00 	data16 cs nopw 0x0(%rax,%rax,1)
    3c7f:	00 00 00 00 
    3c83:	66 66 2e 0f 1f 84 00 	data16 cs nopw 0x0(%rax,%rax,1)
    3c8a:	00 00 00 00 
    3c8e:	66 66 2e 0f 1f 84 00 	data16 cs nopw 0x0(%rax,%rax,1)
    3c95:	00 00 00 00 
    3c99:	66 66 2e 0f 1f 84 00 	data16 cs nopw 0x0(%rax,%rax,1)
    3ca0:	00 00 00 00 
    3ca4:	66 66 2e 0f 1f 84 00 	data16 cs nopw 0x0(%rax,%rax,1)
    3cab:	00 00 00 00 
    3caf:	66 66 2e 0f 1f 84 00 	data16 cs nopw 0x0(%rax,%rax,1)
    3cb6:	00 00 00 00 
    3cba:	66 66 2e 0f 1f 84 00 	data16 cs nopw 0x0(%rax,%rax,1)
    3cc1:	00 00 00 00 
    3cc5:	66 66 2e 0f 1f 84 00 	data16 cs nopw 0x0(%rax,%rax,1)
    3ccc:	00 00 00 00 
    3cd0:	66 66 2e 0f 1f 84 00 	data16 cs nopw 0x0(%rax,%rax,1)
    3cd7:	00 00 00 00 
    3cdb:	66 66 2e 0f 1f 84 00 	data16 cs nopw 0x0(%rax,%rax,1)
    3ce2:	00 00 00 00 
    3ce6:	66 66 2e 0f 1f 84 00 	data16 cs nopw 0x0(%rax,%rax,1)
    3ced:	00 00 00 00 
    3cf1:	66 66 2e 0f 1f 84 00 	data16 cs nopw 0x0(%rax,%rax,1)
    3cf8:	00 00 00 00 
    3cfc:	66 66 2e 0f 1f 84 00 	data16 cs nopw 0x0(%rax,%rax,1)
    3d03:	00 00 00 00 
    3d07:	66 66 2e 0f 1f 84 00 	data16 cs nopw 0x0(%rax,%rax,1)
    3d0e:	00 00 00 00 
    3d12:	66 66 2e 0f 1f 84 00 	data16 cs nopw 0x0(%rax,%rax,1)
    3d19:	00 00 00 00 
    3d1d:	66 66 2e 0f 1f 84 00 	data16 cs nopw 0x0(%rax,%rax,1)
    3d24:	00 00 00 00 
    3d28:	66 66 2e 0f 1f 84 00 	data16 cs nopw 0x0(%rax,%rax,1)
    3d2f:	00 00 00 00 
    3d33:	66 66 2e 0f 1f 84 00 	data16 cs nopw 0x0(%rax,%rax,1)
    3d3a:	00 00 00 00 
    3d3e:	66 66 2e 0f 1f 84 00 	data16 cs nopw 0x0(%rax,%rax,1)
    3d45:	00 00 00 00 
    3d49:	66 66 2e 0f 1f 84 00 	data16 cs nopw 0x0(%rax,%rax,1)
    3d50:	00 00 00 00 
    3d54:	66 66 2e 0f 1f 84 00 	data16 cs nopw 0x0(%rax,%rax,1)
    3d5b:	00 00 00 00 
    3d5f:	66 66 2e 0f 1f 84 00 	data16 cs nopw 0x0(%rax,%rax,1)
    3d66:	00 00 00 00 
    3d6a:	66 66 2e 0f 1f 84 00 	data16 cs nopw 0x0(%rax,%rax,1)
    3d71:	00 00 00 00 
    3d75:	66 66 2e 0f 1f 84 00 	data16 cs nopw 0x0(%rax,%rax,1)
    3d7c:	00 00 00 00 
    3d80:	66 66 2e 0f 1f 84 00 	data16 cs nopw 0x0(%rax,%rax,1)
    3d87:	00 00 00 00 
    3d8b:	66 66 2e 0f 1f 84 00 	data16 cs nopw 0x0(%rax,%rax,1)
    3d92:	00 00 00 00 
    3d96:	66 66 2e 0f 1f 84 00 	data16 cs nopw 0x0(%rax,%rax,1)
    3d9d:	00 00 00 00 
    3da1:	66 66 2e 0f 1f 84 00 	data16 cs nopw 0x0(%rax,%rax,1)
    3da8:	00 00 00 00 
    3dac:	66 66 2e 0f 1f 84 00 	data16 cs nopw 0x0(%rax,%rax,1)
    3db3:	00 00 00 00 
    3db7:	66 66 2e 0f 1f 84 00 	data16 cs nopw 0x0(%rax,%rax,1)
    3dbe:	00 00 00 00 
    3dc2:	66 66 2e 0f 1f 84 00 	data16 cs nopw 0x0(%rax,%rax,1)
    3dc9:	00 00 00 00 
    3dcd:	66 66 2e 0f 1f 84 00 	data16 cs nopw 0x0(%rax,%rax,1)
    3dd4:	00 00 00 00 
    3dd8:	66 66 2e 0f 1f 84 00 	data16 cs nopw 0x0(%rax,%rax,1)
    3ddf:	00 00 00 00 
    3de3:	66 66 2e 0f 1f 84 00 	data16 cs nopw 0x0(%rax,%rax,1)
    3dea:	00 00 00 00 
    3dee:	66 66 2e 0f 1f 84 00 	data16 cs nopw 0x0(%rax,%rax,1)
    3df5:	00 00 00 00 
    3df9:	66 66 2e 0f 1f 84 00 	data16 cs nopw 0x0(%rax,%rax,1)
    3e00:	00 00 00 00 
    3e04:	66 66 2e 0f 1f 84 00 	data16 cs nopw 0x0(%rax,%rax,1)
    3e0b:	00 00 00 00 
    3e0f:	66 66 2e 0f 1f 84 00 	data16 cs nopw 0x0(%rax,%rax,1)
    3e16:	00 00 00 00 
    3e1a:	66 66 2e 0f 1f 84 00 	data16 cs nopw 0x0(%rax,%rax,1)
    3e21:	00 00 00 00 
    3e25:	66 66 2e 0f 1f 84 00 	data16 cs nopw 0x0(%rax,%rax,1)
    3e2c:	00 00 00 00 
    3e30:	66 66 2e 0f 1f 84 00 	data16 cs nopw 0x0(%rax,%rax,1)
    3e37:	00 00 00 00 
    3e3b:	66 66 2e 0f 1f 84 00 	data16 cs nopw 0x0(%rax,%rax,1)
    3e42:	00 00 00 00 
    3e46:	66 66 2e 0f 1f 84 00 	data16 cs nopw 0x0(%rax,%rax,1)
    3e4d:	00 00 00 00 
    3e51:	66 66 2e 0f 1f 84 00 	data16 cs nopw 0x0(%rax,%rax,1)
    3e58:	00 00 00 00 
    3e5c:	66 66 2e 0f 1f 84 00 	data16 cs nopw 0x0(%rax,%rax,1)
    3e63:	00 00 00 00 
    3e67:	66 66 2e 0f 1f 84 00 	data16 cs nopw 0x0(%rax,%rax,1)
    3e6e:	00 00 00 00 
    3e72:	66 66 2e 0f 1f 84 00 	data16 cs nopw 0x0(%rax,%rax,1)
    3e79:	00 00 00 00 
    3e7d:	66 66 2e 0f 1f 84 00 	data16 cs nopw 0x0(%rax,%rax,1)
    3e84:	00 00 00 00 
    3e88:	66 66 2e 0f 1f 84 00 	data16 cs nopw 0x0(%rax,%rax,1)
    3e8f:	00 00 00 00 
    3e93:	66 66 2e 0f 1f 84 00 	data16 cs nopw 0x0(%rax,%rax,1)
    3e9a:	00 00 00 00 
    3e9e:	66 66 2e 0f 1f 84 00 	data16 cs nopw 0x0(%rax,%rax,1)
    3ea5:	00 00 00 00 
    3ea9:	66 66 2e 0f 1f 84 00 	data16 cs nopw 0x0(%rax,%rax,1)
    3eb0:	00 00 00 00 
    3eb4:	66 66 2e 0f 1f 84 00 	data16 cs nopw 0x0(%rax,%rax,1)
    3ebb:	00 00 00 00 
    3ebf:	66 66 2e 0f 1f 84 00 	data16 cs nopw 0x0(%rax,%rax,1)
    3ec6:	00 00 00 00 
    3eca:	66 66 2e 0f 1f 84 00 	data16 cs nopw 0x0(%rax,%rax,1)
    3ed1:	00 00 00 00 
    3ed5:	66 66 2e 0f 1f 84 00 	data16 cs nopw 0x0(%rax,%rax,1)
    3edc:	00 00 00 00 
    3ee0:	66 66 2e 0f 1f 84 00 	data16 cs nopw 0x0(%rax,%rax,1)
    3ee7:	00 00 00 00 
    3eeb:	66 66 2e 0f 1f 84 00 	data16 cs nopw 0x0(%rax,%rax,1)
    3ef2:	00 00 00 00 
    3ef6:	66 66 2e 0f 1f 84 00 	data16 cs nopw 0x0(%rax,%rax,1)
    3efd:	00 00 00 00 
    3f01:	66 66 2e 0f 1f 84 00 	data16 cs nopw 0x0(%rax,%rax,1)
    3f08:	00 00 00 00 
    3f0c:	66 66 2e 0f 1f 84 00 	data16 cs nopw 0x0(%rax,%rax,1)
    3f13:	00 00 00 00 
    3f17:	66 66 2e 0f 1f 84 00 	data16 cs nopw 0x0(%rax,%rax,1)
    3f1e:	00 00 00 00 
    3f22:	66 66 2e 0f 1f 84 00 	data16 cs nopw 0x0(%rax,%rax,1)
    3f29:	00 00 00 00 
    3f2d:	66 66 2e 0f 1f 84 00 	data16 cs nopw 0x0(%rax,%rax,1)
    3f34:	00 00 00 00 
    3f38:	66 66 2e 0f 1f 84 00 	data16 cs nopw 0x0(%rax,%rax,1)
    3f3f:	00 00 00 00 
    3f43:	66 66 2e 0f 1f 84 00 	data16 cs nopw 0x0(%rax,%rax,1)
    3f4a:	00 00 00 00 
    3f4e:	66 66 2e 0f 1f 84 00 	data16 cs nopw 0x0(%rax,%rax,1)
    3f55:	00 00 00 00 
    3f59:	66 66 2e 0f 1f 84 00 	data16 cs nopw 0x0(%rax,%rax,1)
    3f60:	00 00 00 00 
    3f64:	66 66 2e 0f 1f 84 00 	data16 cs nopw 0x0(%rax,%rax,1)
    3f6b:	00 00 00 00 
    3f6f:	66 66 2e 0f 1f 84 00 	data16 cs nopw 0x0(%rax,%rax,1)
    3f76:	00 00 00 00 
    3f7a:	66 66 2e 0f 1f 84 00 	data16 cs nopw 0x0(%rax,%rax,1)
    3f81:	00 00 00 00 
    3f85:	66 66 2e 0f 1f 84 00 	data16 cs nopw 0x0(%rax,%rax,1)
    3f8c:	00 00 00 00 
    3f90:	66 66 2e 0f 1f 84 00 	data16 cs nopw 0x0(%rax,%rax,1)
    3f97:	00 00 00 00 
    3f9b:	66 66 2e 0f 1f 84 00 	data16 cs nopw 0x0(%rax,%rax,1)
    3fa2:	00 00 00 00 
    3fa6:	66 66 2e 0f 1f 84 00 	data16 cs nopw 0x0(%rax,%rax,1)
    3fad:	00 00 00 00 
    3fb1:	66 66 2e 0f 1f 84 00 	data16 cs nopw 0x0(%rax,%rax,1)
    3fb8:	00 00 00 00 
    3fbc:	66 66 2e 0f 1f 84 00 	data16 cs nopw 0x0(%rax,%rax,1)
    3fc3:	00 00 00 00 
    3fc7:	66 66 2e 0f 1f 84 00 	data16 cs nopw 0x0(%rax,%rax,1)
    3fce:	00 00 00 00 
    3fd2:	66 66 2e 0f 1f 84 00 	data16 cs nopw 0x0(%rax,%rax,1)
    3fd9:	00 00 00 00 
    3fdd:	66 66 2e 0f 1f 84 00 	data16 cs nopw 0x0(%rax,%rax,1)
    3fe4:	00 00 00 00 
    3fe8:	66 66 2e 0f 1f 84 00 	data16 cs nopw 0x0(%rax,%rax,1)
    3fef:	00 00 00 00 
    3ff3:	66 66 2e 0f 1f 84 00 	data16 cs nopw 0x0(%rax,%rax,1)
    3ffa:	00 00 00 00 
    3ffe:	66 90                	xchg   %ax,%ax

0000000000004000 <cake_codebuffer_end>:
	...

0000000000005000 <windows_cml_clear>:
    5000:	49 89 c9             	mov    %rcx,%r9
    5003:	49 89 d0             	mov    %rdx,%r8
    5006:	48 89 f2             	mov    %rsi,%rdx
    5009:	48 89 f9             	mov    %rdi,%rcx
    500c:	e9 84 01 00 00       	jmp    5195 <cml_clear>

0000000000005011 <cml_enter>:
    5011:	48 83 ec 30          	sub    $0x30,%rsp
    5015:	4c 89 65 f8          	mov    %r12,-0x8(%rbp)
    5019:	4c 89 6d f0          	mov    %r13,-0x10(%rbp)
    501d:	4c 89 75 e8          	mov    %r14,-0x18(%rbp)
    5021:	4c 89 7d e0          	mov    %r15,-0x20(%rbp)
    5025:	48 89 5d d8          	mov    %rbx,-0x28(%rbp)
    5029:	e9 22 e0 ff ff       	jmp    3050 <cml__Init_0>

000000000000502e <cml_return>:
    502e:	48 c7 05 07 30 00 00 	movq   $0x1,0x3007(%rip)        # 8040 <can_enter>
    5035:	01 00 00 00 
    5039:	4c 89 35 e8 2f 00 00 	mov    %r14,0x2fe8(%rip)        # 8028 <ret_base>
    5040:	4c 89 25 e9 2f 00 00 	mov    %r12,0x2fe9(%rip)        # 8030 <ret_stack>
    5047:	4c 89 2d ea 2f 00 00 	mov    %r13,0x2fea(%rip)        # 8038 <ret_stackend>
    504e:	48 8b 5d d8          	mov    -0x28(%rbp),%rbx
    5052:	4c 8b 7d e0          	mov    -0x20(%rbp),%r15
    5056:	4c 8b 75 e8          	mov    -0x18(%rbp),%r14
    505a:	4c 8b 6d f0          	mov    -0x10(%rbp),%r13
    505e:	4c 8b 65 f8          	mov    -0x8(%rbp),%r12
    5062:	c9                   	leave  
    5063:	c3                   	ret    
    5064:	66 66 2e 0f 1f 84 00 	data16 cs nopw 0x0(%rax,%rax,1)
    506b:	00 00 00 00 
    506f:	90                   	nop

0000000000005070 <windows_cake_enter>:
    5070:	48 89 cf             	mov    %rcx,%rdi
    5073:	48 89 d6             	mov    %rdx,%rsi
    5076:	4c 89 c2             	mov    %r8,%rdx
    5079:	4c 89 c9             	mov    %r9,%rcx

000000000000507c <cake_enter>:
    507c:	55                   	push   %rbp
    507d:	48 89 e5             	mov    %rsp,%rbp
    5080:	48 83 ec 30          	sub    $0x30,%rsp
    5084:	4c 89 65 f8          	mov    %r12,-0x8(%rbp)
    5088:	4c 89 6d f0          	mov    %r13,-0x10(%rbp)
    508c:	4c 89 75 e8          	mov    %r14,-0x18(%rbp)
    5090:	4c 89 7d e0          	mov    %r15,-0x20(%rbp)
    5094:	48 89 5d d8          	mov    %rbx,-0x28(%rbp)
    5098:	4c 8b 1d a1 2f 00 00 	mov    0x2fa1(%rip),%r11        # 8040 <can_enter>
    509f:	49 83 fb 00          	cmp    $0x0,%r11
    50a3:	74 5b                	je     5100 <cake_err3>
    50a5:	48 c7 05 90 2f 00 00 	movq   $0x0,0x2f90(%rip)        # 8040 <can_enter>
    50ac:	00 00 00 00 
    50b0:	4c 8b 35 71 2f 00 00 	mov    0x2f71(%rip),%r14        # 8028 <ret_base>
    50b7:	4c 8b 25 72 2f 00 00 	mov    0x2f72(%rip),%r12        # 8030 <ret_stack>
    50be:	4c 8b 2d 73 2f 00 00 	mov    0x2f73(%rip),%r13        # 8038 <ret_stackend>
    50c5:	48 8d 05 04 00 00 00 	lea    0x4(%rip),%rax        # 50d0 <cake_return>
    50cc:	41 ff e2             	jmp    *%r10
    50cf:	90                   	nop

00000000000050d0 <cake_return>:
    50d0:	48 c7 05 65 2f 00 00 	movq   $0x1,0x2f65(%rip)        # 8040 <can_enter>
    50d7:	01 00 00 00 
    50db:	89 f8                	mov    %edi,%eax
    50dd:	48 8b 5d d8          	mov    -0x28(%rbp),%rbx
    50e1:	4c 8b 7d e0          	mov    -0x20(%rbp),%r15
    50e5:	4c 8b 75 e8          	mov    -0x18(%rbp),%r14
    50e9:	4c 8b 6d f0          	mov    -0x10(%rbp),%r13
    50ed:	4c 8b 65 f8          	mov    -0x8(%rbp),%r12
    50f1:	c9                   	leave  
    50f2:	c3                   	ret    
    50f3:	66 66 2e 0f 1f 84 00 	data16 cs nopw 0x0(%rax,%rax,1)
    50fa:	00 00 00 00 
    50fe:	66 90                	xchg   %ax,%ax

0000000000005100 <cake_err3>:
    5100:	50                   	push   %rax
    5101:	48 c7 c7 03 00 00 00 	mov    $0x3,%rdi
    5108:	e9 57 00 00 00       	jmp    5164 <cml_err>
    510d:	0f 1f 00             	nopl   (%rax)

0000000000005110 <windows_cml_err>:
    5110:	49 89 c9             	mov    %rcx,%r9
    5113:	49 89 d0             	mov    %rdx,%r8
    5116:	48 89 f2             	mov    %rsi,%rdx
    5119:	48 89 f9             	mov    %rdi,%rcx
    511c:	e9 43 00 00 00       	jmp    5164 <cml_err>

0000000000005121 <enqueue>:
    5121:	4c 8d 15 05 00 00 00 	lea    0x5(%rip),%r10        # 512d <enqueue_jmp>
    5128:	e9 4f ff ff ff       	jmp    507c <cake_enter>

000000000000512d <enqueue_jmp>:
    512d:	e9 5e e8 ff ff       	jmp    3990 <cml_enqueue_9>

0000000000005132 <dequeue>:
    5132:	4c 8d 15 05 00 00 00 	lea    0x5(%rip),%r10        # 513e <dequeue_jmp>
    5139:	e9 3e ff ff ff       	jmp    507c <cake_enter>

000000000000513e <dequeue_jmp>:
    513e:	e9 57 e9 ff ff       	jmp    3a9a <cml_dequeue_10>

0000000000005143 <cml_exit>:
    5143:	f3 0f 1e fa          	endbr64 
    5147:	55                   	push   %rbp
    5148:	48 89 e5             	mov    %rsp,%rbp
    514b:	48 83 ec 10          	sub    $0x10,%rsp
    514f:	89 7d fc             	mov    %edi,-0x4(%rbp)
    5152:	48 8d 05 af 0e 00 00 	lea    0xeaf(%rip),%rax        # 6008 <_IO_stdin_used+0x8>
    5159:	48 89 c7             	mov    %rax,%rdi
    515c:	e8 cf be ff ff       	call   1030 <puts@plt>
    5161:	90                   	nop
    5162:	c9                   	leave  
    5163:	c3                   	ret    

0000000000005164 <cml_err>:
    5164:	f3 0f 1e fa          	endbr64 
    5168:	55                   	push   %rbp
    5169:	48 89 e5             	mov    %rsp,%rbp
    516c:	48 83 ec 10          	sub    $0x10,%rsp
    5170:	89 7d fc             	mov    %edi,-0x4(%rbp)
    5173:	83 7d fc 03          	cmpl   $0x3,-0x4(%rbp)
    5177:	75 0f                	jne    5188 <cml_err+0x24>
    5179:	48 8d 05 b0 0e 00 00 	lea    0xeb0(%rip),%rax        # 6030 <_IO_stdin_used+0x30>
    5180:	48 89 c7             	mov    %rax,%rdi
    5183:	e8 a8 be ff ff       	call   1030 <puts@plt>
    5188:	8b 45 fc             	mov    -0x4(%rbp),%eax
    518b:	89 c7                	mov    %eax,%edi
    518d:	e8 b1 ff ff ff       	call   5143 <cml_exit>
    5192:	90                   	nop
    5193:	c9                   	leave  
    5194:	c3                   	ret    

0000000000005195 <cml_clear>:
    5195:	f3 0f 1e fa          	endbr64 
    5199:	55                   	push   %rbp
    519a:	48 89 e5             	mov    %rsp,%rbp
    519d:	48 8d 05 fa 0e 00 00 	lea    0xefa(%rip),%rax        # 609e <_IO_stdin_used+0x9e>
    51a4:	48 89 c7             	mov    %rax,%rdi
    51a7:	e8 84 be ff ff       	call   1030 <puts@plt>
    51ac:	90                   	nop
    51ad:	5d                   	pop    %rbp
    51ae:	c3                   	ret    

00000000000051af <init_pancake_mem>:
    51af:	f3 0f 1e fa          	endbr64 
    51b3:	55                   	push   %rbp
    51b4:	48 89 e5             	mov    %rsp,%rbp
    51b7:	48 c7 45 f0 00 04 00 	movq   $0x400,-0x10(%rbp)
    51be:	00 
    51bf:	48 c7 45 f8 00 04 00 	movq   $0x400,-0x8(%rbp)
    51c6:	00 
    51c7:	48 8d 05 d2 2e 00 00 	lea    0x2ed2(%rip),%rax        # 80a0 <cml_memory>
    51ce:	48 89 05 3b 2e 00 00 	mov    %rax,0x2e3b(%rip)        # 8010 <cml_heap>
    51d5:	48 8b 15 34 2e 00 00 	mov    0x2e34(%rip),%rdx        # 8010 <cml_heap>
    51dc:	48 8b 45 f0          	mov    -0x10(%rbp),%rax
    51e0:	48 01 d0             	add    %rdx,%rax
    51e3:	48 89 05 2e 2e 00 00 	mov    %rax,0x2e2e(%rip)        # 8018 <cml_stack>
    51ea:	48 8b 15 27 2e 00 00 	mov    0x2e27(%rip),%rdx        # 8018 <cml_stack>
    51f1:	48 8b 45 f8          	mov    -0x8(%rbp),%rax
    51f5:	48 01 d0             	add    %rdx,%rax
    51f8:	48 89 05 21 2e 00 00 	mov    %rax,0x2e21(%rip)        # 8020 <cml_stackend>
    51ff:	90                   	nop
    5200:	5d                   	pop    %rbp
    5201:	c3                   	ret    

0000000000005202 <ffitransfer32>:
    5202:	f3 0f 1e fa          	endbr64 
    5206:	55                   	push   %rbp
    5207:	48 89 e5             	mov    %rsp,%rbp
    520a:	48 89 7d e8          	mov    %rdi,-0x18(%rbp)
    520e:	48 89 75 e0          	mov    %rsi,-0x20(%rbp)
    5212:	48 89 55 d8          	mov    %rdx,-0x28(%rbp)
    5216:	48 89 4d d0          	mov    %rcx,-0x30(%rbp)
    521a:	48 8b 45 e8          	mov    -0x18(%rbp),%rax
    521e:	8b 00                	mov    (%rax),%eax
    5220:	89 45 fc             	mov    %eax,-0x4(%rbp)
    5223:	48 8b 45 d8          	mov    -0x28(%rbp),%rax
    5227:	8b 55 fc             	mov    -0x4(%rbp),%edx
    522a:	89 10                	mov    %edx,(%rax)
    522c:	90                   	nop
    522d:	5d                   	pop    %rbp
    522e:	c3                   	ret    

000000000000522f <ffiprint_int>:
    522f:	f3 0f 1e fa          	endbr64 
    5233:	55                   	push   %rbp
    5234:	48 89 e5             	mov    %rsp,%rbp
    5237:	48 83 ec 20          	sub    $0x20,%rsp
    523b:	48 89 7d f8          	mov    %rdi,-0x8(%rbp)
    523f:	48 89 75 f0          	mov    %rsi,-0x10(%rbp)
    5243:	48 89 55 e8          	mov    %rdx,-0x18(%rbp)
    5247:	48 89 4d e0          	mov    %rcx,-0x20(%rbp)
    524b:	48 8b 45 f0          	mov    -0x10(%rbp),%rax
    524f:	48 89 c6             	mov    %rax,%rsi
    5252:	48 8d 05 5b 0e 00 00 	lea    0xe5b(%rip),%rax        # 60b4 <_IO_stdin_used+0xb4>
    5259:	48 89 c7             	mov    %rax,%rdi
    525c:	b8 00 00 00 00       	mov    $0x0,%eax
    5261:	e8 da bd ff ff       	call   1040 <printf@plt>
    5266:	90                   	nop
    5267:	c9                   	leave  
    5268:	c3                   	ret    

0000000000005269 <main>:
    5269:	f3 0f 1e fa          	endbr64 
    526d:	55                   	push   %rbp
    526e:	48 89 e5             	mov    %rsp,%rbp
    5271:	48 83 ec 40          	sub    $0x40,%rsp
    5275:	b8 00 00 00 00       	mov    $0x0,%eax
    527a:	e8 30 ff ff ff       	call   51af <init_pancake_mem>
    527f:	e8 7c dd ff ff       	call   3000 <cml_main>
    5284:	48 8b 05 85 2d 00 00 	mov    0x2d85(%rip),%rax        # 8010 <cml_heap>
    528b:	48 89 45 d0          	mov    %rax,-0x30(%rbp)
    528f:	48 8b 45 d0          	mov    -0x30(%rbp),%rax
    5293:	48 83 c0 08          	add    $0x8,%rax
    5297:	48 89 45 d8          	mov    %rax,-0x28(%rbp)
    529b:	c7 45 cc 02 00 00 00 	movl   $0x2,-0x34(%rbp)
    52a2:	eb 59                	jmp    52fd <main+0x94>
    52a4:	48 8b 45 d8          	mov    -0x28(%rbp),%rax
    52a8:	48 89 c7             	mov    %rax,%rdi
    52ab:	e8 82 fe ff ff       	call   5132 <dequeue>
    52b0:	48 89 45 e8          	mov    %rax,-0x18(%rbp)
    52b4:	48 8b 45 d8          	mov    -0x28(%rbp),%rax
    52b8:	48 89 c7             	mov    %rax,%rdi
    52bb:	e8 72 fe ff ff       	call   5132 <dequeue>
    52c0:	48 89 45 f0          	mov    %rax,-0x10(%rbp)
    52c4:	48 8b 55 e8          	mov    -0x18(%rbp),%rdx
    52c8:	48 8b 45 f0          	mov    -0x10(%rbp),%rax
    52cc:	48 01 d0             	add    %rdx,%rax
    52cf:	48 89 45 f8          	mov    %rax,-0x8(%rbp)
    52d3:	48 8b 55 f0          	mov    -0x10(%rbp),%rdx
    52d7:	48 8b 45 d8          	mov    -0x28(%rbp),%rax
    52db:	48 89 d6             	mov    %rdx,%rsi
    52de:	48 89 c7             	mov    %rax,%rdi
    52e1:	e8 3b fe ff ff       	call   5121 <enqueue>
    52e6:	48 8b 55 f8          	mov    -0x8(%rbp),%rdx
    52ea:	48 8b 45 d8          	mov    -0x28(%rbp),%rax
    52ee:	48 89 d6             	mov    %rdx,%rsi
    52f1:	48 89 c7             	mov    %rax,%rdi
    52f4:	e8 28 fe ff ff       	call   5121 <enqueue>
    52f9:	83 45 cc 01          	addl   $0x1,-0x34(%rbp)
    52fd:	81 7d cc 10 27 00 00 	cmpl   $0x2710,-0x34(%rbp)
    5304:	7e 9e                	jle    52a4 <main+0x3b>
    5306:	48 8b 45 d8          	mov    -0x28(%rbp),%rax
    530a:	48 89 c7             	mov    %rax,%rdi
    530d:	e8 20 fe ff ff       	call   5132 <dequeue>
    5312:	48 8b 45 d8          	mov    -0x28(%rbp),%rax
    5316:	48 89 c7             	mov    %rax,%rdi
    5319:	e8 14 fe ff ff       	call   5132 <dequeue>
    531e:	48 89 45 e0          	mov    %rax,-0x20(%rbp)
    5322:	b8 00 00 00 00       	mov    $0x0,%eax
    5327:	c9                   	leave  
    5328:	c3                   	ret    

Disassembly of section .fini:

000000000000532c <_fini>:
    532c:	f3 0f 1e fa          	endbr64 
    5330:	48 83 ec 08          	sub    $0x8,%rsp
    5334:	48 83 c4 08          	add    $0x8,%rsp
    5338:	c3                   	ret    
