
fibopnk:     file format elf64-x86-64


Disassembly of section .init:

0000000000001000 <_init>:
    1000:	f3 0f 1e fa          	endbr64
    1004:	48 83 ec 08          	sub    $0x8,%rsp
    1008:	48 8b 05 d9 6f 00 00 	mov    0x6fd9(%rip),%rax        # 7fe8 <__gmon_start__@Base>
    100f:	48 85 c0             	test   %rax,%rax
    1012:	74 02                	je     1016 <_init+0x16>
    1014:	ff d0                	call   *%rax
    1016:	48 83 c4 08          	add    $0x8,%rsp
    101a:	c3                   	ret

Disassembly of section .plt:

0000000000001020 <puts@plt-0x10>:
    1020:	ff 35 92 6f 00 00    	push   0x6f92(%rip)        # 7fb8 <_GLOBAL_OFFSET_TABLE_+0x8>
    1026:	ff 25 94 6f 00 00    	jmp    *0x6f94(%rip)        # 7fc0 <_GLOBAL_OFFSET_TABLE_+0x10>
    102c:	0f 1f 40 00          	nopl   0x0(%rax)

0000000000001030 <puts@plt>:
    1030:	ff 25 92 6f 00 00    	jmp    *0x6f92(%rip)        # 7fc8 <puts@GLIBC_2.2.5>
    1036:	68 00 00 00 00       	push   $0x0
    103b:	e9 e0 ff ff ff       	jmp    1020 <_init+0x20>

0000000000001040 <printf@plt>:
    1040:	ff 25 8a 6f 00 00    	jmp    *0x6f8a(%rip)        # 7fd0 <printf@GLIBC_2.2.5>
    1046:	68 01 00 00 00       	push   $0x1
    104b:	e9 d0 ff ff ff       	jmp    1020 <_init+0x20>

Disassembly of section .plt.got:

0000000000001050 <__cxa_finalize@plt>:
    1050:	ff 25 a2 6f 00 00    	jmp    *0x6fa2(%rip)        # 7ff8 <__cxa_finalize@GLIBC_2.2.5>
    1056:	66 90                	xchg   %ax,%ax

Disassembly of section .text:

0000000000002000 <_start>:
    2000:	f3 0f 1e fa          	endbr64
    2004:	31 ed                	xor    %ebp,%ebp
    2006:	49 89 d1             	mov    %rdx,%r9
    2009:	5e                   	pop    %rsi
    200a:	48 89 e2             	mov    %rsp,%rdx
    200d:	48 83 e4 f0          	and    $0xfffffffffffffff0,%rsp
    2011:	50                   	push   %rax
    2012:	54                   	push   %rsp
    2013:	45 31 c0             	xor    %r8d,%r8d
    2016:	31 c9                	xor    %ecx,%ecx
    2018:	48 8d 3d 5a 32 00 00 	lea    0x325a(%rip),%rdi        # 5279 <main>
    201f:	ff 15 b3 5f 00 00    	call   *0x5fb3(%rip)        # 7fd8 <__libc_start_main@GLIBC_2.34>
    2025:	f4                   	hlt
    2026:	66 2e 0f 1f 84 00 00 	cs nopw 0x0(%rax,%rax,1)
    202d:	00 00 00 

0000000000002030 <deregister_tm_clones>:
    2030:	48 8d 3d 39 60 00 00 	lea    0x6039(%rip),%rdi        # 8070 <__TMC_END__>
    2037:	48 8d 05 32 60 00 00 	lea    0x6032(%rip),%rax        # 8070 <__TMC_END__>
    203e:	48 39 f8             	cmp    %rdi,%rax
    2041:	74 15                	je     2058 <deregister_tm_clones+0x28>
    2043:	48 8b 05 96 5f 00 00 	mov    0x5f96(%rip),%rax        # 7fe0 <_ITM_deregisterTMCloneTable@Base>
    204a:	48 85 c0             	test   %rax,%rax
    204d:	74 09                	je     2058 <deregister_tm_clones+0x28>
    204f:	ff e0                	jmp    *%rax
    2051:	0f 1f 80 00 00 00 00 	nopl   0x0(%rax)
    2058:	c3                   	ret
    2059:	0f 1f 80 00 00 00 00 	nopl   0x0(%rax)

0000000000002060 <register_tm_clones>:
    2060:	48 8d 3d 09 60 00 00 	lea    0x6009(%rip),%rdi        # 8070 <__TMC_END__>
    2067:	48 8d 35 02 60 00 00 	lea    0x6002(%rip),%rsi        # 8070 <__TMC_END__>
    206e:	48 29 fe             	sub    %rdi,%rsi
    2071:	48 89 f0             	mov    %rsi,%rax
    2074:	48 c1 ee 3f          	shr    $0x3f,%rsi
    2078:	48 c1 f8 03          	sar    $0x3,%rax
    207c:	48 01 c6             	add    %rax,%rsi
    207f:	48 d1 fe             	sar    $1,%rsi
    2082:	74 14                	je     2098 <register_tm_clones+0x38>
    2084:	48 8b 05 65 5f 00 00 	mov    0x5f65(%rip),%rax        # 7ff0 <_ITM_registerTMCloneTable@Base>
    208b:	48 85 c0             	test   %rax,%rax
    208e:	74 08                	je     2098 <register_tm_clones+0x38>
    2090:	ff e0                	jmp    *%rax
    2092:	66 0f 1f 44 00 00    	nopw   0x0(%rax,%rax,1)
    2098:	c3                   	ret
    2099:	0f 1f 80 00 00 00 00 	nopl   0x0(%rax)

00000000000020a0 <__do_global_dtors_aux>:
    20a0:	f3 0f 1e fa          	endbr64
    20a4:	80 3d d5 5f 00 00 00 	cmpb   $0x0,0x5fd5(%rip)        # 8080 <completed.0>
    20ab:	75 2b                	jne    20d8 <__do_global_dtors_aux+0x38>
    20ad:	55                   	push   %rbp
    20ae:	48 83 3d 42 5f 00 00 	cmpq   $0x0,0x5f42(%rip)        # 7ff8 <__cxa_finalize@GLIBC_2.2.5>
    20b5:	00 
    20b6:	48 89 e5             	mov    %rsp,%rbp
    20b9:	74 0c                	je     20c7 <__do_global_dtors_aux+0x27>
    20bb:	48 8b 3d 46 5f 00 00 	mov    0x5f46(%rip),%rdi        # 8008 <__dso_handle>
    20c2:	e8 89 ef ff ff       	call   1050 <__cxa_finalize@plt>
    20c7:	e8 64 ff ff ff       	call   2030 <deregister_tm_clones>
    20cc:	c6 05 ad 5f 00 00 01 	movb   $0x1,0x5fad(%rip)        # 8080 <completed.0>
    20d3:	5d                   	pop    %rbp
    20d4:	c3                   	ret
    20d5:	0f 1f 00             	nopl   (%rax)
    20d8:	c3                   	ret
    20d9:	0f 1f 80 00 00 00 00 	nopl   0x0(%rax)

00000000000020e0 <frame_dummy>:
    20e0:	f3 0f 1e fa          	endbr64
    20e4:	e9 77 ff ff ff       	jmp    2060 <register_tm_clones>
    20e9:	66 2e 0f 1f 84 00 00 	cs nopw 0x0(%rax,%rax,1)
    20f0:	00 00 00 
    20f3:	66 2e 0f 1f 84 00 00 	cs nopw 0x0(%rax,%rax,1)
    20fa:	00 00 00 
    20fd:	66 2e 0f 1f 84 00 00 	cs nopw 0x0(%rax,%rax,1)
    2104:	00 00 00 
    2107:	66 2e 0f 1f 84 00 00 	cs nopw 0x0(%rax,%rax,1)
    210e:	00 00 00 
    2111:	66 2e 0f 1f 84 00 00 	cs nopw 0x0(%rax,%rax,1)
    2118:	00 00 00 
    211b:	66 2e 0f 1f 84 00 00 	cs nopw 0x0(%rax,%rax,1)
    2122:	00 00 00 
    2125:	66 2e 0f 1f 84 00 00 	cs nopw 0x0(%rax,%rax,1)
    212c:	00 00 00 
    212f:	66 2e 0f 1f 84 00 00 	cs nopw 0x0(%rax,%rax,1)
    2136:	00 00 00 
    2139:	66 2e 0f 1f 84 00 00 	cs nopw 0x0(%rax,%rax,1)
    2140:	00 00 00 
    2143:	66 2e 0f 1f 84 00 00 	cs nopw 0x0(%rax,%rax,1)
    214a:	00 00 00 
    214d:	66 2e 0f 1f 84 00 00 	cs nopw 0x0(%rax,%rax,1)
    2154:	00 00 00 
    2157:	66 2e 0f 1f 84 00 00 	cs nopw 0x0(%rax,%rax,1)
    215e:	00 00 00 
    2161:	66 2e 0f 1f 84 00 00 	cs nopw 0x0(%rax,%rax,1)
    2168:	00 00 00 
    216b:	66 2e 0f 1f 84 00 00 	cs nopw 0x0(%rax,%rax,1)
    2172:	00 00 00 
    2175:	66 2e 0f 1f 84 00 00 	cs nopw 0x0(%rax,%rax,1)
    217c:	00 00 00 
    217f:	66 2e 0f 1f 84 00 00 	cs nopw 0x0(%rax,%rax,1)
    2186:	00 00 00 
    2189:	66 2e 0f 1f 84 00 00 	cs nopw 0x0(%rax,%rax,1)
    2190:	00 00 00 
    2193:	66 2e 0f 1f 84 00 00 	cs nopw 0x0(%rax,%rax,1)
    219a:	00 00 00 
    219d:	66 2e 0f 1f 84 00 00 	cs nopw 0x0(%rax,%rax,1)
    21a4:	00 00 00 
    21a7:	66 2e 0f 1f 84 00 00 	cs nopw 0x0(%rax,%rax,1)
    21ae:	00 00 00 
    21b1:	66 2e 0f 1f 84 00 00 	cs nopw 0x0(%rax,%rax,1)
    21b8:	00 00 00 
    21bb:	66 2e 0f 1f 84 00 00 	cs nopw 0x0(%rax,%rax,1)
    21c2:	00 00 00 
    21c5:	66 2e 0f 1f 84 00 00 	cs nopw 0x0(%rax,%rax,1)
    21cc:	00 00 00 
    21cf:	66 2e 0f 1f 84 00 00 	cs nopw 0x0(%rax,%rax,1)
    21d6:	00 00 00 
    21d9:	66 2e 0f 1f 84 00 00 	cs nopw 0x0(%rax,%rax,1)
    21e0:	00 00 00 
    21e3:	66 2e 0f 1f 84 00 00 	cs nopw 0x0(%rax,%rax,1)
    21ea:	00 00 00 
    21ed:	66 2e 0f 1f 84 00 00 	cs nopw 0x0(%rax,%rax,1)
    21f4:	00 00 00 
    21f7:	66 2e 0f 1f 84 00 00 	cs nopw 0x0(%rax,%rax,1)
    21fe:	00 00 00 
    2201:	66 2e 0f 1f 84 00 00 	cs nopw 0x0(%rax,%rax,1)
    2208:	00 00 00 
    220b:	66 2e 0f 1f 84 00 00 	cs nopw 0x0(%rax,%rax,1)
    2212:	00 00 00 
    2215:	66 2e 0f 1f 84 00 00 	cs nopw 0x0(%rax,%rax,1)
    221c:	00 00 00 
    221f:	66 2e 0f 1f 84 00 00 	cs nopw 0x0(%rax,%rax,1)
    2226:	00 00 00 
    2229:	66 2e 0f 1f 84 00 00 	cs nopw 0x0(%rax,%rax,1)
    2230:	00 00 00 
    2233:	66 2e 0f 1f 84 00 00 	cs nopw 0x0(%rax,%rax,1)
    223a:	00 00 00 
    223d:	66 2e 0f 1f 84 00 00 	cs nopw 0x0(%rax,%rax,1)
    2244:	00 00 00 
    2247:	66 2e 0f 1f 84 00 00 	cs nopw 0x0(%rax,%rax,1)
    224e:	00 00 00 
    2251:	66 2e 0f 1f 84 00 00 	cs nopw 0x0(%rax,%rax,1)
    2258:	00 00 00 
    225b:	66 2e 0f 1f 84 00 00 	cs nopw 0x0(%rax,%rax,1)
    2262:	00 00 00 
    2265:	66 2e 0f 1f 84 00 00 	cs nopw 0x0(%rax,%rax,1)
    226c:	00 00 00 
    226f:	66 2e 0f 1f 84 00 00 	cs nopw 0x0(%rax,%rax,1)
    2276:	00 00 00 
    2279:	66 2e 0f 1f 84 00 00 	cs nopw 0x0(%rax,%rax,1)
    2280:	00 00 00 
    2283:	66 2e 0f 1f 84 00 00 	cs nopw 0x0(%rax,%rax,1)
    228a:	00 00 00 
    228d:	66 2e 0f 1f 84 00 00 	cs nopw 0x0(%rax,%rax,1)
    2294:	00 00 00 
    2297:	66 2e 0f 1f 84 00 00 	cs nopw 0x0(%rax,%rax,1)
    229e:	00 00 00 
    22a1:	66 2e 0f 1f 84 00 00 	cs nopw 0x0(%rax,%rax,1)
    22a8:	00 00 00 
    22ab:	66 2e 0f 1f 84 00 00 	cs nopw 0x0(%rax,%rax,1)
    22b2:	00 00 00 
    22b5:	66 2e 0f 1f 84 00 00 	cs nopw 0x0(%rax,%rax,1)
    22bc:	00 00 00 
    22bf:	66 2e 0f 1f 84 00 00 	cs nopw 0x0(%rax,%rax,1)
    22c6:	00 00 00 
    22c9:	66 2e 0f 1f 84 00 00 	cs nopw 0x0(%rax,%rax,1)
    22d0:	00 00 00 
    22d3:	66 2e 0f 1f 84 00 00 	cs nopw 0x0(%rax,%rax,1)
    22da:	00 00 00 
    22dd:	66 2e 0f 1f 84 00 00 	cs nopw 0x0(%rax,%rax,1)
    22e4:	00 00 00 
    22e7:	66 2e 0f 1f 84 00 00 	cs nopw 0x0(%rax,%rax,1)
    22ee:	00 00 00 
    22f1:	66 2e 0f 1f 84 00 00 	cs nopw 0x0(%rax,%rax,1)
    22f8:	00 00 00 
    22fb:	66 2e 0f 1f 84 00 00 	cs nopw 0x0(%rax,%rax,1)
    2302:	00 00 00 
    2305:	66 2e 0f 1f 84 00 00 	cs nopw 0x0(%rax,%rax,1)
    230c:	00 00 00 
    230f:	66 2e 0f 1f 84 00 00 	cs nopw 0x0(%rax,%rax,1)
    2316:	00 00 00 
    2319:	66 2e 0f 1f 84 00 00 	cs nopw 0x0(%rax,%rax,1)
    2320:	00 00 00 
    2323:	66 2e 0f 1f 84 00 00 	cs nopw 0x0(%rax,%rax,1)
    232a:	00 00 00 
    232d:	66 2e 0f 1f 84 00 00 	cs nopw 0x0(%rax,%rax,1)
    2334:	00 00 00 
    2337:	66 2e 0f 1f 84 00 00 	cs nopw 0x0(%rax,%rax,1)
    233e:	00 00 00 
    2341:	66 2e 0f 1f 84 00 00 	cs nopw 0x0(%rax,%rax,1)
    2348:	00 00 00 
    234b:	66 2e 0f 1f 84 00 00 	cs nopw 0x0(%rax,%rax,1)
    2352:	00 00 00 
    2355:	66 2e 0f 1f 84 00 00 	cs nopw 0x0(%rax,%rax,1)
    235c:	00 00 00 
    235f:	66 2e 0f 1f 84 00 00 	cs nopw 0x0(%rax,%rax,1)
    2366:	00 00 00 
    2369:	66 2e 0f 1f 84 00 00 	cs nopw 0x0(%rax,%rax,1)
    2370:	00 00 00 
    2373:	66 2e 0f 1f 84 00 00 	cs nopw 0x0(%rax,%rax,1)
    237a:	00 00 00 
    237d:	66 2e 0f 1f 84 00 00 	cs nopw 0x0(%rax,%rax,1)
    2384:	00 00 00 
    2387:	66 2e 0f 1f 84 00 00 	cs nopw 0x0(%rax,%rax,1)
    238e:	00 00 00 
    2391:	66 2e 0f 1f 84 00 00 	cs nopw 0x0(%rax,%rax,1)
    2398:	00 00 00 
    239b:	66 2e 0f 1f 84 00 00 	cs nopw 0x0(%rax,%rax,1)
    23a2:	00 00 00 
    23a5:	66 2e 0f 1f 84 00 00 	cs nopw 0x0(%rax,%rax,1)
    23ac:	00 00 00 
    23af:	66 2e 0f 1f 84 00 00 	cs nopw 0x0(%rax,%rax,1)
    23b6:	00 00 00 
    23b9:	66 2e 0f 1f 84 00 00 	cs nopw 0x0(%rax,%rax,1)
    23c0:	00 00 00 
    23c3:	66 2e 0f 1f 84 00 00 	cs nopw 0x0(%rax,%rax,1)
    23ca:	00 00 00 
    23cd:	66 2e 0f 1f 84 00 00 	cs nopw 0x0(%rax,%rax,1)
    23d4:	00 00 00 
    23d7:	66 2e 0f 1f 84 00 00 	cs nopw 0x0(%rax,%rax,1)
    23de:	00 00 00 
    23e1:	66 2e 0f 1f 84 00 00 	cs nopw 0x0(%rax,%rax,1)
    23e8:	00 00 00 
    23eb:	66 2e 0f 1f 84 00 00 	cs nopw 0x0(%rax,%rax,1)
    23f2:	00 00 00 
    23f5:	66 2e 0f 1f 84 00 00 	cs nopw 0x0(%rax,%rax,1)
    23fc:	00 00 00 
    23ff:	66 2e 0f 1f 84 00 00 	cs nopw 0x0(%rax,%rax,1)
    2406:	00 00 00 
    2409:	66 2e 0f 1f 84 00 00 	cs nopw 0x0(%rax,%rax,1)
    2410:	00 00 00 
    2413:	66 2e 0f 1f 84 00 00 	cs nopw 0x0(%rax,%rax,1)
    241a:	00 00 00 
    241d:	66 2e 0f 1f 84 00 00 	cs nopw 0x0(%rax,%rax,1)
    2424:	00 00 00 
    2427:	66 2e 0f 1f 84 00 00 	cs nopw 0x0(%rax,%rax,1)
    242e:	00 00 00 
    2431:	66 2e 0f 1f 84 00 00 	cs nopw 0x0(%rax,%rax,1)
    2438:	00 00 00 
    243b:	66 2e 0f 1f 84 00 00 	cs nopw 0x0(%rax,%rax,1)
    2442:	00 00 00 
    2445:	66 2e 0f 1f 84 00 00 	cs nopw 0x0(%rax,%rax,1)
    244c:	00 00 00 
    244f:	66 2e 0f 1f 84 00 00 	cs nopw 0x0(%rax,%rax,1)
    2456:	00 00 00 
    2459:	66 2e 0f 1f 84 00 00 	cs nopw 0x0(%rax,%rax,1)
    2460:	00 00 00 
    2463:	66 2e 0f 1f 84 00 00 	cs nopw 0x0(%rax,%rax,1)
    246a:	00 00 00 
    246d:	66 2e 0f 1f 84 00 00 	cs nopw 0x0(%rax,%rax,1)
    2474:	00 00 00 
    2477:	66 2e 0f 1f 84 00 00 	cs nopw 0x0(%rax,%rax,1)
    247e:	00 00 00 
    2481:	66 2e 0f 1f 84 00 00 	cs nopw 0x0(%rax,%rax,1)
    2488:	00 00 00 
    248b:	66 2e 0f 1f 84 00 00 	cs nopw 0x0(%rax,%rax,1)
    2492:	00 00 00 
    2495:	66 2e 0f 1f 84 00 00 	cs nopw 0x0(%rax,%rax,1)
    249c:	00 00 00 
    249f:	66 2e 0f 1f 84 00 00 	cs nopw 0x0(%rax,%rax,1)
    24a6:	00 00 00 
    24a9:	66 2e 0f 1f 84 00 00 	cs nopw 0x0(%rax,%rax,1)
    24b0:	00 00 00 
    24b3:	66 2e 0f 1f 84 00 00 	cs nopw 0x0(%rax,%rax,1)
    24ba:	00 00 00 
    24bd:	66 2e 0f 1f 84 00 00 	cs nopw 0x0(%rax,%rax,1)
    24c4:	00 00 00 
    24c7:	66 2e 0f 1f 84 00 00 	cs nopw 0x0(%rax,%rax,1)
    24ce:	00 00 00 
    24d1:	66 2e 0f 1f 84 00 00 	cs nopw 0x0(%rax,%rax,1)
    24d8:	00 00 00 
    24db:	66 2e 0f 1f 84 00 00 	cs nopw 0x0(%rax,%rax,1)
    24e2:	00 00 00 
    24e5:	66 2e 0f 1f 84 00 00 	cs nopw 0x0(%rax,%rax,1)
    24ec:	00 00 00 
    24ef:	66 2e 0f 1f 84 00 00 	cs nopw 0x0(%rax,%rax,1)
    24f6:	00 00 00 
    24f9:	66 2e 0f 1f 84 00 00 	cs nopw 0x0(%rax,%rax,1)
    2500:	00 00 00 
    2503:	66 2e 0f 1f 84 00 00 	cs nopw 0x0(%rax,%rax,1)
    250a:	00 00 00 
    250d:	66 2e 0f 1f 84 00 00 	cs nopw 0x0(%rax,%rax,1)
    2514:	00 00 00 
    2517:	66 2e 0f 1f 84 00 00 	cs nopw 0x0(%rax,%rax,1)
    251e:	00 00 00 
    2521:	66 2e 0f 1f 84 00 00 	cs nopw 0x0(%rax,%rax,1)
    2528:	00 00 00 
    252b:	66 2e 0f 1f 84 00 00 	cs nopw 0x0(%rax,%rax,1)
    2532:	00 00 00 
    2535:	66 2e 0f 1f 84 00 00 	cs nopw 0x0(%rax,%rax,1)
    253c:	00 00 00 
    253f:	66 2e 0f 1f 84 00 00 	cs nopw 0x0(%rax,%rax,1)
    2546:	00 00 00 
    2549:	66 2e 0f 1f 84 00 00 	cs nopw 0x0(%rax,%rax,1)
    2550:	00 00 00 
    2553:	66 2e 0f 1f 84 00 00 	cs nopw 0x0(%rax,%rax,1)
    255a:	00 00 00 
    255d:	66 2e 0f 1f 84 00 00 	cs nopw 0x0(%rax,%rax,1)
    2564:	00 00 00 
    2567:	66 2e 0f 1f 84 00 00 	cs nopw 0x0(%rax,%rax,1)
    256e:	00 00 00 
    2571:	66 2e 0f 1f 84 00 00 	cs nopw 0x0(%rax,%rax,1)
    2578:	00 00 00 
    257b:	66 2e 0f 1f 84 00 00 	cs nopw 0x0(%rax,%rax,1)
    2582:	00 00 00 
    2585:	66 2e 0f 1f 84 00 00 	cs nopw 0x0(%rax,%rax,1)
    258c:	00 00 00 
    258f:	66 2e 0f 1f 84 00 00 	cs nopw 0x0(%rax,%rax,1)
    2596:	00 00 00 
    2599:	66 2e 0f 1f 84 00 00 	cs nopw 0x0(%rax,%rax,1)
    25a0:	00 00 00 
    25a3:	66 2e 0f 1f 84 00 00 	cs nopw 0x0(%rax,%rax,1)
    25aa:	00 00 00 
    25ad:	66 2e 0f 1f 84 00 00 	cs nopw 0x0(%rax,%rax,1)
    25b4:	00 00 00 
    25b7:	66 2e 0f 1f 84 00 00 	cs nopw 0x0(%rax,%rax,1)
    25be:	00 00 00 
    25c1:	66 2e 0f 1f 84 00 00 	cs nopw 0x0(%rax,%rax,1)
    25c8:	00 00 00 
    25cb:	66 2e 0f 1f 84 00 00 	cs nopw 0x0(%rax,%rax,1)
    25d2:	00 00 00 
    25d5:	66 2e 0f 1f 84 00 00 	cs nopw 0x0(%rax,%rax,1)
    25dc:	00 00 00 
    25df:	66 2e 0f 1f 84 00 00 	cs nopw 0x0(%rax,%rax,1)
    25e6:	00 00 00 
    25e9:	66 2e 0f 1f 84 00 00 	cs nopw 0x0(%rax,%rax,1)
    25f0:	00 00 00 
    25f3:	66 2e 0f 1f 84 00 00 	cs nopw 0x0(%rax,%rax,1)
    25fa:	00 00 00 
    25fd:	66 2e 0f 1f 84 00 00 	cs nopw 0x0(%rax,%rax,1)
    2604:	00 00 00 
    2607:	66 2e 0f 1f 84 00 00 	cs nopw 0x0(%rax,%rax,1)
    260e:	00 00 00 
    2611:	66 2e 0f 1f 84 00 00 	cs nopw 0x0(%rax,%rax,1)
    2618:	00 00 00 
    261b:	66 2e 0f 1f 84 00 00 	cs nopw 0x0(%rax,%rax,1)
    2622:	00 00 00 
    2625:	66 2e 0f 1f 84 00 00 	cs nopw 0x0(%rax,%rax,1)
    262c:	00 00 00 
    262f:	66 2e 0f 1f 84 00 00 	cs nopw 0x0(%rax,%rax,1)
    2636:	00 00 00 
    2639:	66 2e 0f 1f 84 00 00 	cs nopw 0x0(%rax,%rax,1)
    2640:	00 00 00 
    2643:	66 2e 0f 1f 84 00 00 	cs nopw 0x0(%rax,%rax,1)
    264a:	00 00 00 
    264d:	66 2e 0f 1f 84 00 00 	cs nopw 0x0(%rax,%rax,1)
    2654:	00 00 00 
    2657:	66 2e 0f 1f 84 00 00 	cs nopw 0x0(%rax,%rax,1)
    265e:	00 00 00 
    2661:	66 2e 0f 1f 84 00 00 	cs nopw 0x0(%rax,%rax,1)
    2668:	00 00 00 
    266b:	66 2e 0f 1f 84 00 00 	cs nopw 0x0(%rax,%rax,1)
    2672:	00 00 00 
    2675:	66 2e 0f 1f 84 00 00 	cs nopw 0x0(%rax,%rax,1)
    267c:	00 00 00 
    267f:	66 2e 0f 1f 84 00 00 	cs nopw 0x0(%rax,%rax,1)
    2686:	00 00 00 
    2689:	66 2e 0f 1f 84 00 00 	cs nopw 0x0(%rax,%rax,1)
    2690:	00 00 00 
    2693:	66 2e 0f 1f 84 00 00 	cs nopw 0x0(%rax,%rax,1)
    269a:	00 00 00 
    269d:	66 2e 0f 1f 84 00 00 	cs nopw 0x0(%rax,%rax,1)
    26a4:	00 00 00 
    26a7:	66 2e 0f 1f 84 00 00 	cs nopw 0x0(%rax,%rax,1)
    26ae:	00 00 00 
    26b1:	66 2e 0f 1f 84 00 00 	cs nopw 0x0(%rax,%rax,1)
    26b8:	00 00 00 
    26bb:	66 2e 0f 1f 84 00 00 	cs nopw 0x0(%rax,%rax,1)
    26c2:	00 00 00 
    26c5:	66 2e 0f 1f 84 00 00 	cs nopw 0x0(%rax,%rax,1)
    26cc:	00 00 00 
    26cf:	66 2e 0f 1f 84 00 00 	cs nopw 0x0(%rax,%rax,1)
    26d6:	00 00 00 
    26d9:	66 2e 0f 1f 84 00 00 	cs nopw 0x0(%rax,%rax,1)
    26e0:	00 00 00 
    26e3:	66 2e 0f 1f 84 00 00 	cs nopw 0x0(%rax,%rax,1)
    26ea:	00 00 00 
    26ed:	66 2e 0f 1f 84 00 00 	cs nopw 0x0(%rax,%rax,1)
    26f4:	00 00 00 
    26f7:	66 2e 0f 1f 84 00 00 	cs nopw 0x0(%rax,%rax,1)
    26fe:	00 00 00 
    2701:	66 2e 0f 1f 84 00 00 	cs nopw 0x0(%rax,%rax,1)
    2708:	00 00 00 
    270b:	66 2e 0f 1f 84 00 00 	cs nopw 0x0(%rax,%rax,1)
    2712:	00 00 00 
    2715:	66 2e 0f 1f 84 00 00 	cs nopw 0x0(%rax,%rax,1)
    271c:	00 00 00 
    271f:	66 2e 0f 1f 84 00 00 	cs nopw 0x0(%rax,%rax,1)
    2726:	00 00 00 
    2729:	66 2e 0f 1f 84 00 00 	cs nopw 0x0(%rax,%rax,1)
    2730:	00 00 00 
    2733:	66 2e 0f 1f 84 00 00 	cs nopw 0x0(%rax,%rax,1)
    273a:	00 00 00 
    273d:	66 2e 0f 1f 84 00 00 	cs nopw 0x0(%rax,%rax,1)
    2744:	00 00 00 
    2747:	66 2e 0f 1f 84 00 00 	cs nopw 0x0(%rax,%rax,1)
    274e:	00 00 00 
    2751:	66 2e 0f 1f 84 00 00 	cs nopw 0x0(%rax,%rax,1)
    2758:	00 00 00 
    275b:	66 2e 0f 1f 84 00 00 	cs nopw 0x0(%rax,%rax,1)
    2762:	00 00 00 
    2765:	66 2e 0f 1f 84 00 00 	cs nopw 0x0(%rax,%rax,1)
    276c:	00 00 00 
    276f:	66 2e 0f 1f 84 00 00 	cs nopw 0x0(%rax,%rax,1)
    2776:	00 00 00 
    2779:	66 2e 0f 1f 84 00 00 	cs nopw 0x0(%rax,%rax,1)
    2780:	00 00 00 
    2783:	66 2e 0f 1f 84 00 00 	cs nopw 0x0(%rax,%rax,1)
    278a:	00 00 00 
    278d:	66 2e 0f 1f 84 00 00 	cs nopw 0x0(%rax,%rax,1)
    2794:	00 00 00 
    2797:	66 2e 0f 1f 84 00 00 	cs nopw 0x0(%rax,%rax,1)
    279e:	00 00 00 
    27a1:	66 2e 0f 1f 84 00 00 	cs nopw 0x0(%rax,%rax,1)
    27a8:	00 00 00 
    27ab:	66 2e 0f 1f 84 00 00 	cs nopw 0x0(%rax,%rax,1)
    27b2:	00 00 00 
    27b5:	66 2e 0f 1f 84 00 00 	cs nopw 0x0(%rax,%rax,1)
    27bc:	00 00 00 
    27bf:	66 2e 0f 1f 84 00 00 	cs nopw 0x0(%rax,%rax,1)
    27c6:	00 00 00 
    27c9:	66 2e 0f 1f 84 00 00 	cs nopw 0x0(%rax,%rax,1)
    27d0:	00 00 00 
    27d3:	66 2e 0f 1f 84 00 00 	cs nopw 0x0(%rax,%rax,1)
    27da:	00 00 00 
    27dd:	66 2e 0f 1f 84 00 00 	cs nopw 0x0(%rax,%rax,1)
    27e4:	00 00 00 
    27e7:	66 2e 0f 1f 84 00 00 	cs nopw 0x0(%rax,%rax,1)
    27ee:	00 00 00 
    27f1:	66 2e 0f 1f 84 00 00 	cs nopw 0x0(%rax,%rax,1)
    27f8:	00 00 00 
    27fb:	66 2e 0f 1f 84 00 00 	cs nopw 0x0(%rax,%rax,1)
    2802:	00 00 00 
    2805:	66 2e 0f 1f 84 00 00 	cs nopw 0x0(%rax,%rax,1)
    280c:	00 00 00 
    280f:	66 2e 0f 1f 84 00 00 	cs nopw 0x0(%rax,%rax,1)
    2816:	00 00 00 
    2819:	66 2e 0f 1f 84 00 00 	cs nopw 0x0(%rax,%rax,1)
    2820:	00 00 00 
    2823:	66 2e 0f 1f 84 00 00 	cs nopw 0x0(%rax,%rax,1)
    282a:	00 00 00 
    282d:	66 2e 0f 1f 84 00 00 	cs nopw 0x0(%rax,%rax,1)
    2834:	00 00 00 
    2837:	66 2e 0f 1f 84 00 00 	cs nopw 0x0(%rax,%rax,1)
    283e:	00 00 00 
    2841:	66 2e 0f 1f 84 00 00 	cs nopw 0x0(%rax,%rax,1)
    2848:	00 00 00 
    284b:	66 2e 0f 1f 84 00 00 	cs nopw 0x0(%rax,%rax,1)
    2852:	00 00 00 
    2855:	66 2e 0f 1f 84 00 00 	cs nopw 0x0(%rax,%rax,1)
    285c:	00 00 00 
    285f:	66 2e 0f 1f 84 00 00 	cs nopw 0x0(%rax,%rax,1)
    2866:	00 00 00 
    2869:	66 2e 0f 1f 84 00 00 	cs nopw 0x0(%rax,%rax,1)
    2870:	00 00 00 
    2873:	66 2e 0f 1f 84 00 00 	cs nopw 0x0(%rax,%rax,1)
    287a:	00 00 00 
    287d:	66 2e 0f 1f 84 00 00 	cs nopw 0x0(%rax,%rax,1)
    2884:	00 00 00 
    2887:	66 2e 0f 1f 84 00 00 	cs nopw 0x0(%rax,%rax,1)
    288e:	00 00 00 
    2891:	66 2e 0f 1f 84 00 00 	cs nopw 0x0(%rax,%rax,1)
    2898:	00 00 00 
    289b:	66 2e 0f 1f 84 00 00 	cs nopw 0x0(%rax,%rax,1)
    28a2:	00 00 00 
    28a5:	66 2e 0f 1f 84 00 00 	cs nopw 0x0(%rax,%rax,1)
    28ac:	00 00 00 
    28af:	66 2e 0f 1f 84 00 00 	cs nopw 0x0(%rax,%rax,1)
    28b6:	00 00 00 
    28b9:	66 2e 0f 1f 84 00 00 	cs nopw 0x0(%rax,%rax,1)
    28c0:	00 00 00 
    28c3:	66 2e 0f 1f 84 00 00 	cs nopw 0x0(%rax,%rax,1)
    28ca:	00 00 00 
    28cd:	66 2e 0f 1f 84 00 00 	cs nopw 0x0(%rax,%rax,1)
    28d4:	00 00 00 
    28d7:	66 2e 0f 1f 84 00 00 	cs nopw 0x0(%rax,%rax,1)
    28de:	00 00 00 
    28e1:	66 2e 0f 1f 84 00 00 	cs nopw 0x0(%rax,%rax,1)
    28e8:	00 00 00 
    28eb:	66 2e 0f 1f 84 00 00 	cs nopw 0x0(%rax,%rax,1)
    28f2:	00 00 00 
    28f5:	66 2e 0f 1f 84 00 00 	cs nopw 0x0(%rax,%rax,1)
    28fc:	00 00 00 
    28ff:	66 2e 0f 1f 84 00 00 	cs nopw 0x0(%rax,%rax,1)
    2906:	00 00 00 
    2909:	66 2e 0f 1f 84 00 00 	cs nopw 0x0(%rax,%rax,1)
    2910:	00 00 00 
    2913:	66 2e 0f 1f 84 00 00 	cs nopw 0x0(%rax,%rax,1)
    291a:	00 00 00 
    291d:	66 2e 0f 1f 84 00 00 	cs nopw 0x0(%rax,%rax,1)
    2924:	00 00 00 
    2927:	66 2e 0f 1f 84 00 00 	cs nopw 0x0(%rax,%rax,1)
    292e:	00 00 00 
    2931:	66 2e 0f 1f 84 00 00 	cs nopw 0x0(%rax,%rax,1)
    2938:	00 00 00 
    293b:	66 2e 0f 1f 84 00 00 	cs nopw 0x0(%rax,%rax,1)
    2942:	00 00 00 
    2945:	66 2e 0f 1f 84 00 00 	cs nopw 0x0(%rax,%rax,1)
    294c:	00 00 00 
    294f:	66 2e 0f 1f 84 00 00 	cs nopw 0x0(%rax,%rax,1)
    2956:	00 00 00 
    2959:	66 2e 0f 1f 84 00 00 	cs nopw 0x0(%rax,%rax,1)
    2960:	00 00 00 
    2963:	66 2e 0f 1f 84 00 00 	cs nopw 0x0(%rax,%rax,1)
    296a:	00 00 00 
    296d:	66 2e 0f 1f 84 00 00 	cs nopw 0x0(%rax,%rax,1)
    2974:	00 00 00 
    2977:	66 2e 0f 1f 84 00 00 	cs nopw 0x0(%rax,%rax,1)
    297e:	00 00 00 
    2981:	66 2e 0f 1f 84 00 00 	cs nopw 0x0(%rax,%rax,1)
    2988:	00 00 00 
    298b:	66 2e 0f 1f 84 00 00 	cs nopw 0x0(%rax,%rax,1)
    2992:	00 00 00 
    2995:	66 2e 0f 1f 84 00 00 	cs nopw 0x0(%rax,%rax,1)
    299c:	00 00 00 
    299f:	66 2e 0f 1f 84 00 00 	cs nopw 0x0(%rax,%rax,1)
    29a6:	00 00 00 
    29a9:	66 2e 0f 1f 84 00 00 	cs nopw 0x0(%rax,%rax,1)
    29b0:	00 00 00 
    29b3:	66 2e 0f 1f 84 00 00 	cs nopw 0x0(%rax,%rax,1)
    29ba:	00 00 00 
    29bd:	66 2e 0f 1f 84 00 00 	cs nopw 0x0(%rax,%rax,1)
    29c4:	00 00 00 
    29c7:	66 2e 0f 1f 84 00 00 	cs nopw 0x0(%rax,%rax,1)
    29ce:	00 00 00 
    29d1:	66 2e 0f 1f 84 00 00 	cs nopw 0x0(%rax,%rax,1)
    29d8:	00 00 00 
    29db:	66 2e 0f 1f 84 00 00 	cs nopw 0x0(%rax,%rax,1)
    29e2:	00 00 00 
    29e5:	66 2e 0f 1f 84 00 00 	cs nopw 0x0(%rax,%rax,1)
    29ec:	00 00 00 
    29ef:	66 2e 0f 1f 84 00 00 	cs nopw 0x0(%rax,%rax,1)
    29f6:	00 00 00 
    29f9:	66 2e 0f 1f 84 00 00 	cs nopw 0x0(%rax,%rax,1)
    2a00:	00 00 00 
    2a03:	66 2e 0f 1f 84 00 00 	cs nopw 0x0(%rax,%rax,1)
    2a0a:	00 00 00 
    2a0d:	66 2e 0f 1f 84 00 00 	cs nopw 0x0(%rax,%rax,1)
    2a14:	00 00 00 
    2a17:	66 2e 0f 1f 84 00 00 	cs nopw 0x0(%rax,%rax,1)
    2a1e:	00 00 00 
    2a21:	66 2e 0f 1f 84 00 00 	cs nopw 0x0(%rax,%rax,1)
    2a28:	00 00 00 
    2a2b:	66 2e 0f 1f 84 00 00 	cs nopw 0x0(%rax,%rax,1)
    2a32:	00 00 00 
    2a35:	66 2e 0f 1f 84 00 00 	cs nopw 0x0(%rax,%rax,1)
    2a3c:	00 00 00 
    2a3f:	66 2e 0f 1f 84 00 00 	cs nopw 0x0(%rax,%rax,1)
    2a46:	00 00 00 
    2a49:	66 2e 0f 1f 84 00 00 	cs nopw 0x0(%rax,%rax,1)
    2a50:	00 00 00 
    2a53:	66 2e 0f 1f 84 00 00 	cs nopw 0x0(%rax,%rax,1)
    2a5a:	00 00 00 
    2a5d:	66 2e 0f 1f 84 00 00 	cs nopw 0x0(%rax,%rax,1)
    2a64:	00 00 00 
    2a67:	66 2e 0f 1f 84 00 00 	cs nopw 0x0(%rax,%rax,1)
    2a6e:	00 00 00 
    2a71:	66 2e 0f 1f 84 00 00 	cs nopw 0x0(%rax,%rax,1)
    2a78:	00 00 00 
    2a7b:	66 2e 0f 1f 84 00 00 	cs nopw 0x0(%rax,%rax,1)
    2a82:	00 00 00 
    2a85:	66 2e 0f 1f 84 00 00 	cs nopw 0x0(%rax,%rax,1)
    2a8c:	00 00 00 
    2a8f:	66 2e 0f 1f 84 00 00 	cs nopw 0x0(%rax,%rax,1)
    2a96:	00 00 00 
    2a99:	66 2e 0f 1f 84 00 00 	cs nopw 0x0(%rax,%rax,1)
    2aa0:	00 00 00 
    2aa3:	66 2e 0f 1f 84 00 00 	cs nopw 0x0(%rax,%rax,1)
    2aaa:	00 00 00 
    2aad:	66 2e 0f 1f 84 00 00 	cs nopw 0x0(%rax,%rax,1)
    2ab4:	00 00 00 
    2ab7:	66 2e 0f 1f 84 00 00 	cs nopw 0x0(%rax,%rax,1)
    2abe:	00 00 00 
    2ac1:	66 2e 0f 1f 84 00 00 	cs nopw 0x0(%rax,%rax,1)
    2ac8:	00 00 00 
    2acb:	66 2e 0f 1f 84 00 00 	cs nopw 0x0(%rax,%rax,1)
    2ad2:	00 00 00 
    2ad5:	66 2e 0f 1f 84 00 00 	cs nopw 0x0(%rax,%rax,1)
    2adc:	00 00 00 
    2adf:	66 2e 0f 1f 84 00 00 	cs nopw 0x0(%rax,%rax,1)
    2ae6:	00 00 00 
    2ae9:	66 2e 0f 1f 84 00 00 	cs nopw 0x0(%rax,%rax,1)
    2af0:	00 00 00 
    2af3:	66 2e 0f 1f 84 00 00 	cs nopw 0x0(%rax,%rax,1)
    2afa:	00 00 00 
    2afd:	66 2e 0f 1f 84 00 00 	cs nopw 0x0(%rax,%rax,1)
    2b04:	00 00 00 
    2b07:	66 2e 0f 1f 84 00 00 	cs nopw 0x0(%rax,%rax,1)
    2b0e:	00 00 00 
    2b11:	66 2e 0f 1f 84 00 00 	cs nopw 0x0(%rax,%rax,1)
    2b18:	00 00 00 
    2b1b:	66 2e 0f 1f 84 00 00 	cs nopw 0x0(%rax,%rax,1)
    2b22:	00 00 00 
    2b25:	66 2e 0f 1f 84 00 00 	cs nopw 0x0(%rax,%rax,1)
    2b2c:	00 00 00 
    2b2f:	66 2e 0f 1f 84 00 00 	cs nopw 0x0(%rax,%rax,1)
    2b36:	00 00 00 
    2b39:	66 2e 0f 1f 84 00 00 	cs nopw 0x0(%rax,%rax,1)
    2b40:	00 00 00 
    2b43:	66 2e 0f 1f 84 00 00 	cs nopw 0x0(%rax,%rax,1)
    2b4a:	00 00 00 
    2b4d:	66 2e 0f 1f 84 00 00 	cs nopw 0x0(%rax,%rax,1)
    2b54:	00 00 00 
    2b57:	66 2e 0f 1f 84 00 00 	cs nopw 0x0(%rax,%rax,1)
    2b5e:	00 00 00 
    2b61:	66 2e 0f 1f 84 00 00 	cs nopw 0x0(%rax,%rax,1)
    2b68:	00 00 00 
    2b6b:	66 2e 0f 1f 84 00 00 	cs nopw 0x0(%rax,%rax,1)
    2b72:	00 00 00 
    2b75:	66 2e 0f 1f 84 00 00 	cs nopw 0x0(%rax,%rax,1)
    2b7c:	00 00 00 
    2b7f:	66 2e 0f 1f 84 00 00 	cs nopw 0x0(%rax,%rax,1)
    2b86:	00 00 00 
    2b89:	66 2e 0f 1f 84 00 00 	cs nopw 0x0(%rax,%rax,1)
    2b90:	00 00 00 
    2b93:	66 2e 0f 1f 84 00 00 	cs nopw 0x0(%rax,%rax,1)
    2b9a:	00 00 00 
    2b9d:	66 2e 0f 1f 84 00 00 	cs nopw 0x0(%rax,%rax,1)
    2ba4:	00 00 00 
    2ba7:	66 2e 0f 1f 84 00 00 	cs nopw 0x0(%rax,%rax,1)
    2bae:	00 00 00 
    2bb1:	66 2e 0f 1f 84 00 00 	cs nopw 0x0(%rax,%rax,1)
    2bb8:	00 00 00 
    2bbb:	66 2e 0f 1f 84 00 00 	cs nopw 0x0(%rax,%rax,1)
    2bc2:	00 00 00 
    2bc5:	66 2e 0f 1f 84 00 00 	cs nopw 0x0(%rax,%rax,1)
    2bcc:	00 00 00 
    2bcf:	66 2e 0f 1f 84 00 00 	cs nopw 0x0(%rax,%rax,1)
    2bd6:	00 00 00 
    2bd9:	66 2e 0f 1f 84 00 00 	cs nopw 0x0(%rax,%rax,1)
    2be0:	00 00 00 
    2be3:	66 2e 0f 1f 84 00 00 	cs nopw 0x0(%rax,%rax,1)
    2bea:	00 00 00 
    2bed:	66 2e 0f 1f 84 00 00 	cs nopw 0x0(%rax,%rax,1)
    2bf4:	00 00 00 
    2bf7:	66 2e 0f 1f 84 00 00 	cs nopw 0x0(%rax,%rax,1)
    2bfe:	00 00 00 
    2c01:	66 2e 0f 1f 84 00 00 	cs nopw 0x0(%rax,%rax,1)
    2c08:	00 00 00 
    2c0b:	66 2e 0f 1f 84 00 00 	cs nopw 0x0(%rax,%rax,1)
    2c12:	00 00 00 
    2c15:	66 2e 0f 1f 84 00 00 	cs nopw 0x0(%rax,%rax,1)
    2c1c:	00 00 00 
    2c1f:	66 2e 0f 1f 84 00 00 	cs nopw 0x0(%rax,%rax,1)
    2c26:	00 00 00 
    2c29:	66 2e 0f 1f 84 00 00 	cs nopw 0x0(%rax,%rax,1)
    2c30:	00 00 00 
    2c33:	66 2e 0f 1f 84 00 00 	cs nopw 0x0(%rax,%rax,1)
    2c3a:	00 00 00 
    2c3d:	66 2e 0f 1f 84 00 00 	cs nopw 0x0(%rax,%rax,1)
    2c44:	00 00 00 
    2c47:	66 2e 0f 1f 84 00 00 	cs nopw 0x0(%rax,%rax,1)
    2c4e:	00 00 00 
    2c51:	66 2e 0f 1f 84 00 00 	cs nopw 0x0(%rax,%rax,1)
    2c58:	00 00 00 
    2c5b:	66 2e 0f 1f 84 00 00 	cs nopw 0x0(%rax,%rax,1)
    2c62:	00 00 00 
    2c65:	66 2e 0f 1f 84 00 00 	cs nopw 0x0(%rax,%rax,1)
    2c6c:	00 00 00 
    2c6f:	66 2e 0f 1f 84 00 00 	cs nopw 0x0(%rax,%rax,1)
    2c76:	00 00 00 
    2c79:	66 2e 0f 1f 84 00 00 	cs nopw 0x0(%rax,%rax,1)
    2c80:	00 00 00 
    2c83:	66 2e 0f 1f 84 00 00 	cs nopw 0x0(%rax,%rax,1)
    2c8a:	00 00 00 
    2c8d:	66 2e 0f 1f 84 00 00 	cs nopw 0x0(%rax,%rax,1)
    2c94:	00 00 00 
    2c97:	66 2e 0f 1f 84 00 00 	cs nopw 0x0(%rax,%rax,1)
    2c9e:	00 00 00 
    2ca1:	66 2e 0f 1f 84 00 00 	cs nopw 0x0(%rax,%rax,1)
    2ca8:	00 00 00 
    2cab:	66 2e 0f 1f 84 00 00 	cs nopw 0x0(%rax,%rax,1)
    2cb2:	00 00 00 
    2cb5:	66 2e 0f 1f 84 00 00 	cs nopw 0x0(%rax,%rax,1)
    2cbc:	00 00 00 
    2cbf:	66 2e 0f 1f 84 00 00 	cs nopw 0x0(%rax,%rax,1)
    2cc6:	00 00 00 
    2cc9:	66 2e 0f 1f 84 00 00 	cs nopw 0x0(%rax,%rax,1)
    2cd0:	00 00 00 
    2cd3:	66 2e 0f 1f 84 00 00 	cs nopw 0x0(%rax,%rax,1)
    2cda:	00 00 00 
    2cdd:	66 2e 0f 1f 84 00 00 	cs nopw 0x0(%rax,%rax,1)
    2ce4:	00 00 00 
    2ce7:	66 2e 0f 1f 84 00 00 	cs nopw 0x0(%rax,%rax,1)
    2cee:	00 00 00 
    2cf1:	66 2e 0f 1f 84 00 00 	cs nopw 0x0(%rax,%rax,1)
    2cf8:	00 00 00 
    2cfb:	66 2e 0f 1f 84 00 00 	cs nopw 0x0(%rax,%rax,1)
    2d02:	00 00 00 
    2d05:	66 2e 0f 1f 84 00 00 	cs nopw 0x0(%rax,%rax,1)
    2d0c:	00 00 00 
    2d0f:	66 2e 0f 1f 84 00 00 	cs nopw 0x0(%rax,%rax,1)
    2d16:	00 00 00 
    2d19:	66 2e 0f 1f 84 00 00 	cs nopw 0x0(%rax,%rax,1)
    2d20:	00 00 00 
    2d23:	66 2e 0f 1f 84 00 00 	cs nopw 0x0(%rax,%rax,1)
    2d2a:	00 00 00 
    2d2d:	66 2e 0f 1f 84 00 00 	cs nopw 0x0(%rax,%rax,1)
    2d34:	00 00 00 
    2d37:	66 2e 0f 1f 84 00 00 	cs nopw 0x0(%rax,%rax,1)
    2d3e:	00 00 00 
    2d41:	66 2e 0f 1f 84 00 00 	cs nopw 0x0(%rax,%rax,1)
    2d48:	00 00 00 
    2d4b:	66 2e 0f 1f 84 00 00 	cs nopw 0x0(%rax,%rax,1)
    2d52:	00 00 00 
    2d55:	66 2e 0f 1f 84 00 00 	cs nopw 0x0(%rax,%rax,1)
    2d5c:	00 00 00 
    2d5f:	66 2e 0f 1f 84 00 00 	cs nopw 0x0(%rax,%rax,1)
    2d66:	00 00 00 
    2d69:	66 2e 0f 1f 84 00 00 	cs nopw 0x0(%rax,%rax,1)
    2d70:	00 00 00 
    2d73:	66 2e 0f 1f 84 00 00 	cs nopw 0x0(%rax,%rax,1)
    2d7a:	00 00 00 
    2d7d:	66 2e 0f 1f 84 00 00 	cs nopw 0x0(%rax,%rax,1)
    2d84:	00 00 00 
    2d87:	66 2e 0f 1f 84 00 00 	cs nopw 0x0(%rax,%rax,1)
    2d8e:	00 00 00 
    2d91:	66 2e 0f 1f 84 00 00 	cs nopw 0x0(%rax,%rax,1)
    2d98:	00 00 00 
    2d9b:	66 2e 0f 1f 84 00 00 	cs nopw 0x0(%rax,%rax,1)
    2da2:	00 00 00 
    2da5:	66 2e 0f 1f 84 00 00 	cs nopw 0x0(%rax,%rax,1)
    2dac:	00 00 00 
    2daf:	66 2e 0f 1f 84 00 00 	cs nopw 0x0(%rax,%rax,1)
    2db6:	00 00 00 
    2db9:	66 2e 0f 1f 84 00 00 	cs nopw 0x0(%rax,%rax,1)
    2dc0:	00 00 00 
    2dc3:	66 2e 0f 1f 84 00 00 	cs nopw 0x0(%rax,%rax,1)
    2dca:	00 00 00 
    2dcd:	66 2e 0f 1f 84 00 00 	cs nopw 0x0(%rax,%rax,1)
    2dd4:	00 00 00 
    2dd7:	66 2e 0f 1f 84 00 00 	cs nopw 0x0(%rax,%rax,1)
    2dde:	00 00 00 
    2de1:	66 2e 0f 1f 84 00 00 	cs nopw 0x0(%rax,%rax,1)
    2de8:	00 00 00 
    2deb:	66 2e 0f 1f 84 00 00 	cs nopw 0x0(%rax,%rax,1)
    2df2:	00 00 00 
    2df5:	66 2e 0f 1f 84 00 00 	cs nopw 0x0(%rax,%rax,1)
    2dfc:	00 00 00 
    2dff:	66 2e 0f 1f 84 00 00 	cs nopw 0x0(%rax,%rax,1)
    2e06:	00 00 00 
    2e09:	66 2e 0f 1f 84 00 00 	cs nopw 0x0(%rax,%rax,1)
    2e10:	00 00 00 
    2e13:	66 2e 0f 1f 84 00 00 	cs nopw 0x0(%rax,%rax,1)
    2e1a:	00 00 00 
    2e1d:	66 2e 0f 1f 84 00 00 	cs nopw 0x0(%rax,%rax,1)
    2e24:	00 00 00 
    2e27:	66 2e 0f 1f 84 00 00 	cs nopw 0x0(%rax,%rax,1)
    2e2e:	00 00 00 
    2e31:	66 2e 0f 1f 84 00 00 	cs nopw 0x0(%rax,%rax,1)
    2e38:	00 00 00 
    2e3b:	66 2e 0f 1f 84 00 00 	cs nopw 0x0(%rax,%rax,1)
    2e42:	00 00 00 
    2e45:	66 2e 0f 1f 84 00 00 	cs nopw 0x0(%rax,%rax,1)
    2e4c:	00 00 00 
    2e4f:	66 2e 0f 1f 84 00 00 	cs nopw 0x0(%rax,%rax,1)
    2e56:	00 00 00 
    2e59:	66 2e 0f 1f 84 00 00 	cs nopw 0x0(%rax,%rax,1)
    2e60:	00 00 00 
    2e63:	66 2e 0f 1f 84 00 00 	cs nopw 0x0(%rax,%rax,1)
    2e6a:	00 00 00 
    2e6d:	66 2e 0f 1f 84 00 00 	cs nopw 0x0(%rax,%rax,1)
    2e74:	00 00 00 
    2e77:	66 2e 0f 1f 84 00 00 	cs nopw 0x0(%rax,%rax,1)
    2e7e:	00 00 00 
    2e81:	66 2e 0f 1f 84 00 00 	cs nopw 0x0(%rax,%rax,1)
    2e88:	00 00 00 
    2e8b:	66 2e 0f 1f 84 00 00 	cs nopw 0x0(%rax,%rax,1)
    2e92:	00 00 00 
    2e95:	66 2e 0f 1f 84 00 00 	cs nopw 0x0(%rax,%rax,1)
    2e9c:	00 00 00 
    2e9f:	66 2e 0f 1f 84 00 00 	cs nopw 0x0(%rax,%rax,1)
    2ea6:	00 00 00 
    2ea9:	66 2e 0f 1f 84 00 00 	cs nopw 0x0(%rax,%rax,1)
    2eb0:	00 00 00 
    2eb3:	66 2e 0f 1f 84 00 00 	cs nopw 0x0(%rax,%rax,1)
    2eba:	00 00 00 
    2ebd:	66 2e 0f 1f 84 00 00 	cs nopw 0x0(%rax,%rax,1)
    2ec4:	00 00 00 
    2ec7:	66 2e 0f 1f 84 00 00 	cs nopw 0x0(%rax,%rax,1)
    2ece:	00 00 00 
    2ed1:	66 2e 0f 1f 84 00 00 	cs nopw 0x0(%rax,%rax,1)
    2ed8:	00 00 00 
    2edb:	66 2e 0f 1f 84 00 00 	cs nopw 0x0(%rax,%rax,1)
    2ee2:	00 00 00 
    2ee5:	66 2e 0f 1f 84 00 00 	cs nopw 0x0(%rax,%rax,1)
    2eec:	00 00 00 
    2eef:	66 2e 0f 1f 84 00 00 	cs nopw 0x0(%rax,%rax,1)
    2ef6:	00 00 00 
    2ef9:	66 2e 0f 1f 84 00 00 	cs nopw 0x0(%rax,%rax,1)
    2f00:	00 00 00 
    2f03:	66 2e 0f 1f 84 00 00 	cs nopw 0x0(%rax,%rax,1)
    2f0a:	00 00 00 
    2f0d:	66 2e 0f 1f 84 00 00 	cs nopw 0x0(%rax,%rax,1)
    2f14:	00 00 00 
    2f17:	66 2e 0f 1f 84 00 00 	cs nopw 0x0(%rax,%rax,1)
    2f1e:	00 00 00 
    2f21:	66 2e 0f 1f 84 00 00 	cs nopw 0x0(%rax,%rax,1)
    2f28:	00 00 00 
    2f2b:	66 2e 0f 1f 84 00 00 	cs nopw 0x0(%rax,%rax,1)
    2f32:	00 00 00 
    2f35:	66 2e 0f 1f 84 00 00 	cs nopw 0x0(%rax,%rax,1)
    2f3c:	00 00 00 
    2f3f:	66 2e 0f 1f 84 00 00 	cs nopw 0x0(%rax,%rax,1)
    2f46:	00 00 00 
    2f49:	66 2e 0f 1f 84 00 00 	cs nopw 0x0(%rax,%rax,1)
    2f50:	00 00 00 
    2f53:	66 2e 0f 1f 84 00 00 	cs nopw 0x0(%rax,%rax,1)
    2f5a:	00 00 00 
    2f5d:	66 2e 0f 1f 84 00 00 	cs nopw 0x0(%rax,%rax,1)
    2f64:	00 00 00 
    2f67:	66 2e 0f 1f 84 00 00 	cs nopw 0x0(%rax,%rax,1)
    2f6e:	00 00 00 
    2f71:	66 2e 0f 1f 84 00 00 	cs nopw 0x0(%rax,%rax,1)
    2f78:	00 00 00 
    2f7b:	66 2e 0f 1f 84 00 00 	cs nopw 0x0(%rax,%rax,1)
    2f82:	00 00 00 
    2f85:	66 2e 0f 1f 84 00 00 	cs nopw 0x0(%rax,%rax,1)
    2f8c:	00 00 00 
    2f8f:	66 2e 0f 1f 84 00 00 	cs nopw 0x0(%rax,%rax,1)
    2f96:	00 00 00 
    2f99:	66 2e 0f 1f 84 00 00 	cs nopw 0x0(%rax,%rax,1)
    2fa0:	00 00 00 
    2fa3:	66 2e 0f 1f 84 00 00 	cs nopw 0x0(%rax,%rax,1)
    2faa:	00 00 00 
    2fad:	66 2e 0f 1f 84 00 00 	cs nopw 0x0(%rax,%rax,1)
    2fb4:	00 00 00 
    2fb7:	66 2e 0f 1f 84 00 00 	cs nopw 0x0(%rax,%rax,1)
    2fbe:	00 00 00 
    2fc1:	66 2e 0f 1f 84 00 00 	cs nopw 0x0(%rax,%rax,1)
    2fc8:	00 00 00 
    2fcb:	66 2e 0f 1f 84 00 00 	cs nopw 0x0(%rax,%rax,1)
    2fd2:	00 00 00 
    2fd5:	66 2e 0f 1f 84 00 00 	cs nopw 0x0(%rax,%rax,1)
    2fdc:	00 00 00 
    2fdf:	66 2e 0f 1f 84 00 00 	cs nopw 0x0(%rax,%rax,1)
    2fe6:	00 00 00 
    2fe9:	66 2e 0f 1f 84 00 00 	cs nopw 0x0(%rax,%rax,1)
    2ff0:	00 00 00 
    2ff3:	66 2e 0f 1f 84 00 00 	cs nopw 0x0(%rax,%rax,1)
    2ffa:	00 00 00 
    2ffd:	0f 1f 00             	nopl   (%rax)

0000000000003000 <cml_main>:
    3000:	55                   	push   %rbp
    3001:	48 89 e5             	mov    %rsp,%rbp
    3004:	48 8d 3d 85 00 00 00 	lea    0x85(%rip),%rdi        # 3090 <cml__Init_0>
    300b:	48 8b 35 fe 4f 00 00 	mov    0x4ffe(%rip),%rsi        # 8010 <cml_heap>
    3012:	48 8d 05 2f 50 00 00 	lea    0x502f(%rip),%rax        # 8048 <cake_bitmaps>
    3019:	48 89 06             	mov    %rax,(%rsi)
    301c:	48 8d 05 4d 50 00 00 	lea    0x504d(%rip),%rax        # 8070 <__TMC_END__>
    3023:	48 89 46 08          	mov    %rax,0x8(%rsi)
    3027:	48 8d 05 42 50 00 00 	lea    0x5042(%rip),%rax        # 8070 <__TMC_END__>
    302e:	48 89 46 10          	mov    %rax,0x10(%rsi)
    3032:	48 8d 05 ff 0d 00 00 	lea    0xdff(%rip),%rax        # 3e38 <cake_codebuffer_begin>
    3039:	48 89 46 18          	mov    %rax,0x18(%rsi)
    303d:	48 8d 05 bc 0f 00 00 	lea    0xfbc(%rip),%rax        # 4000 <cake_codebuffer_end>
    3044:	48 89 46 20          	mov    %rax,0x20(%rsi)
    3048:	48 8b 15 c9 4f 00 00 	mov    0x4fc9(%rip),%rdx        # 8018 <cml_stack>
    304f:	48 8b 0d ca 4f 00 00 	mov    0x4fca(%rip),%rcx        # 8020 <cml_stackend>
    3056:	e9 c7 1f 00 00       	jmp    5022 <cml_enter>
    305b:	0f 1f 44 00 00       	nopl   0x0(%rax,%rax,1)

0000000000003060 <cake_ffitransfer32>:
    3060:	50                   	push   %rax
    3061:	e9 ac 21 00 00       	jmp    5212 <ffitransfer32>
    3066:	66 2e 0f 1f 84 00 00 	cs nopw 0x0(%rax,%rax,1)
    306d:	00 00 00 

0000000000003070 <cake_clear>:
    3070:	50                   	push   %rax
    3071:	57                   	push   %rdi
    3072:	e8 2e 21 00 00       	call   51a5 <cml_clear>
    3077:	5f                   	pop    %rdi
    3078:	c3                   	ret
    3079:	0f 1f 80 00 00 00 00 	nopl   0x0(%rax)

0000000000003080 <cake_exit>:
    3080:	e9 ba 1f 00 00       	jmp    503f <cml_return>
    3085:	66 66 2e 0f 1f 84 00 	data16 cs nopw 0x0(%rax,%rax,1)
    308c:	00 00 00 00 

0000000000003090 <cml__Init_0>:
    3090:	48 89 c8             	mov    %rcx,%rax
    3093:	48 29 f0             	sub    %rsi,%rax
    3096:	48 c1 e8 04          	shr    $0x4,%rax
    309a:	48 c1 e0 03          	shl    $0x3,%rax
    309e:	48 01 f0             	add    %rsi,%rax
    30a1:	41 b8 f8 07 00 00    	mov    $0x7f8,%r8d
    30a7:	4c 01 c6             	add    %r8,%rsi
    30aa:	4c 29 c1             	sub    %r8,%rcx
    30ad:	48 39 f2             	cmp    %rsi,%rdx
    30b0:	0f 82 12 00 00 00    	jb     30c8 <cml__Init_0+0x38>
    30b6:	48 39 d1             	cmp    %rdx,%rcx
    30b9:	0f 83 03 00 00 00    	jae    30c2 <cml__Init_0+0x32>
    30bf:	48 89 c2             	mov    %rax,%rdx
    30c2:	e9 05 00 00 00       	jmp    30cc <cml__Init_0+0x3c>
    30c7:	90                   	nop
    30c8:	48 89 c2             	mov    %rax,%rdx
    30cb:	90                   	nop
    30cc:	b8 f8 07 00 00       	mov    $0x7f8,%eax
    30d1:	48 29 c6             	sub    %rax,%rsi
    30d4:	48 01 c1             	add    %rax,%rcx
    30d7:	48 89 d0             	mov    %rdx,%rax
    30da:	48 29 f0             	sub    %rsi,%rax
    30dd:	49 b8 f8 ff ff ff ff 	movabs $0xfffffffffffff8,%r8
    30e4:	ff ff 00 
    30e7:	49 39 c0             	cmp    %rax,%r8
    30ea:	0f 83 06 00 00 00    	jae    30f6 <cml__Init_0+0x66>
    30f0:	48 89 f2             	mov    %rsi,%rdx
    30f3:	4c 01 c2             	add    %r8,%rdx
    30f6:	48 29 f2             	sub    %rsi,%rdx
    30f9:	48 c1 ea 04          	shr    $0x4,%rdx
    30fd:	48 c1 e2 04          	shl    $0x4,%rdx
    3101:	48 01 f2             	add    %rsi,%rdx
    3104:	49 89 d0             	mov    %rdx,%r8
    3107:	49 29 f0             	sub    %rsi,%r8
    310a:	49 d1 e8             	shr    $1,%r8
    310d:	49 89 f6             	mov    %rsi,%r14
    3110:	4c 01 c6             	add    %r8,%rsi
    3113:	49 89 cc             	mov    %rcx,%r12
    3116:	49 89 d5             	mov    %rdx,%r13
    3119:	49 8b 16             	mov    (%r14),%rdx
    311c:	48 c1 ea 03          	shr    $0x3,%rdx
    3120:	4c 89 f0             	mov    %r14,%rax
    3123:	48 83 c0 08          	add    $0x8,%rax
    3127:	48 8b 08             	mov    (%rax),%rcx
    312a:	48 83 c0 08          	add    $0x8,%rax
    312e:	4c 8b 08             	mov    (%rax),%r9
    3131:	48 83 c0 08          	add    $0x8,%rax
    3135:	48 8b 18             	mov    (%rax),%rbx
    3138:	48 83 c0 08          	add    $0x8,%rax
    313c:	48 8b 38             	mov    (%rax),%rdi
    313f:	b8 08 00 00 00       	mov    $0x8,%eax
    3144:	49 29 c4             	sub    %rax,%r12
    3147:	b8 00 00 00 00       	mov    $0x0,%eax
    314c:	49 89 04 24          	mov    %rax,(%r12)
    3150:	b8 00 00 00 00       	mov    $0x0,%eax
    3155:	49 89 45 00          	mov    %rax,0x0(%r13)
    3159:	49 83 c5 08          	add    $0x8,%r13
    315d:	b8 00 00 00 00       	mov    $0x0,%eax
    3162:	49 89 45 00          	mov    %rax,0x0(%r13)
    3166:	49 83 c5 08          	add    $0x8,%r13
    316a:	b8 00 00 00 00       	mov    $0x0,%eax
    316f:	49 89 45 00          	mov    %rax,0x0(%r13)
    3173:	49 83 c5 08          	add    $0x8,%r13
    3177:	b8 00 00 00 00       	mov    $0x0,%eax
    317c:	49 89 45 00          	mov    %rax,0x0(%r13)
    3180:	49 83 c5 08          	add    $0x8,%r13
    3184:	b8 00 00 00 00       	mov    $0x0,%eax
    3189:	49 89 45 00          	mov    %rax,0x0(%r13)
    318d:	49 83 c5 08          	add    $0x8,%r13
    3191:	b8 00 00 00 00       	mov    $0x0,%eax
    3196:	49 89 45 00          	mov    %rax,0x0(%r13)
    319a:	49 83 c5 08          	add    $0x8,%r13
    319e:	b8 00 00 00 00       	mov    $0x0,%eax
    31a3:	49 89 45 00          	mov    %rax,0x0(%r13)
    31a7:	49 83 c5 08          	add    $0x8,%r13
    31ab:	b8 00 00 00 00       	mov    $0x0,%eax
    31b0:	49 89 45 00          	mov    %rax,0x0(%r13)
    31b4:	49 83 c5 08          	add    $0x8,%r13
    31b8:	b8 00 00 00 00       	mov    $0x0,%eax
    31bd:	49 89 45 00          	mov    %rax,0x0(%r13)
    31c1:	49 83 c5 08          	add    $0x8,%r13
    31c5:	b8 00 00 00 00       	mov    $0x0,%eax
    31ca:	49 89 45 00          	mov    %rax,0x0(%r13)
    31ce:	49 83 c5 08          	add    $0x8,%r13
    31d2:	b8 00 00 00 00       	mov    $0x0,%eax
    31d7:	49 89 45 00          	mov    %rax,0x0(%r13)
    31db:	49 83 c5 08          	add    $0x8,%r13
    31df:	b8 00 00 00 00       	mov    $0x0,%eax
    31e4:	49 89 45 00          	mov    %rax,0x0(%r13)
    31e8:	49 83 c5 08          	add    $0x8,%r13
    31ec:	b8 00 00 00 00       	mov    $0x0,%eax
    31f1:	49 89 45 00          	mov    %rax,0x0(%r13)
    31f5:	49 83 c5 08          	add    $0x8,%r13
    31f9:	b8 00 00 00 00       	mov    $0x0,%eax
    31fe:	49 89 45 00          	mov    %rax,0x0(%r13)
    3202:	49 83 c5 08          	add    $0x8,%r13
    3206:	b8 00 00 00 00       	mov    $0x0,%eax
    320b:	49 89 45 00          	mov    %rax,0x0(%r13)
    320f:	49 83 c5 08          	add    $0x8,%r13
    3213:	b8 00 00 00 00       	mov    $0x0,%eax
    3218:	49 89 45 00          	mov    %rax,0x0(%r13)
    321c:	49 83 c5 08          	add    $0x8,%r13
    3220:	b8 00 00 00 00       	mov    $0x0,%eax
    3225:	49 89 45 00          	mov    %rax,0x0(%r13)
    3229:	49 83 c5 08          	add    $0x8,%r13
    322d:	b8 00 00 00 00       	mov    $0x0,%eax
    3232:	49 89 45 00          	mov    %rax,0x0(%r13)
    3236:	49 83 c5 08          	add    $0x8,%r13
    323a:	b8 00 00 00 00       	mov    $0x0,%eax
    323f:	49 89 45 00          	mov    %rax,0x0(%r13)
    3243:	49 83 c5 08          	add    $0x8,%r13
    3247:	b8 00 00 00 00       	mov    $0x0,%eax
    324c:	49 89 45 00          	mov    %rax,0x0(%r13)
    3250:	49 83 c5 08          	add    $0x8,%r13
    3254:	b8 00 00 00 00       	mov    $0x0,%eax
    3259:	49 89 45 00          	mov    %rax,0x0(%r13)
    325d:	49 83 c5 08          	add    $0x8,%r13
    3261:	b8 00 00 00 00       	mov    $0x0,%eax
    3266:	49 89 45 00          	mov    %rax,0x0(%r13)
    326a:	49 83 c5 08          	add    $0x8,%r13
    326e:	b8 00 00 00 00       	mov    $0x0,%eax
    3273:	49 89 45 00          	mov    %rax,0x0(%r13)
    3277:	49 83 c5 08          	add    $0x8,%r13
    327b:	b8 00 00 00 00       	mov    $0x0,%eax
    3280:	49 89 45 00          	mov    %rax,0x0(%r13)
    3284:	49 83 c5 08          	add    $0x8,%r13
    3288:	b8 00 00 00 00       	mov    $0x0,%eax
    328d:	49 89 45 00          	mov    %rax,0x0(%r13)
    3291:	49 83 c5 08          	add    $0x8,%r13
    3295:	b8 00 00 00 00       	mov    $0x0,%eax
    329a:	49 89 45 00          	mov    %rax,0x0(%r13)
    329e:	49 83 c5 08          	add    $0x8,%r13
    32a2:	b8 00 00 00 00       	mov    $0x0,%eax
    32a7:	49 89 45 00          	mov    %rax,0x0(%r13)
    32ab:	49 83 c5 08          	add    $0x8,%r13
    32af:	b8 00 00 00 00       	mov    $0x0,%eax
    32b4:	49 89 45 00          	mov    %rax,0x0(%r13)
    32b8:	49 83 c5 08          	add    $0x8,%r13
    32bc:	b8 00 00 00 00       	mov    $0x0,%eax
    32c1:	49 89 45 00          	mov    %rax,0x0(%r13)
    32c5:	49 83 c5 08          	add    $0x8,%r13
    32c9:	b8 00 00 00 00       	mov    $0x0,%eax
    32ce:	49 89 45 00          	mov    %rax,0x0(%r13)
    32d2:	49 83 c5 08          	add    $0x8,%r13
    32d6:	b8 00 00 00 00       	mov    $0x0,%eax
    32db:	49 89 45 00          	mov    %rax,0x0(%r13)
    32df:	49 83 c5 08          	add    $0x8,%r13
    32e3:	b8 00 00 00 00       	mov    $0x0,%eax
    32e8:	49 89 45 00          	mov    %rax,0x0(%r13)
    32ec:	49 83 c5 08          	add    $0x8,%r13
    32f0:	4d 89 4d 00          	mov    %r9,0x0(%r13)
    32f4:	49 83 c5 08          	add    $0x8,%r13
    32f8:	49 89 4d 00          	mov    %rcx,0x0(%r13)
    32fc:	49 83 c5 08          	add    $0x8,%r13
    3300:	49 89 7d 00          	mov    %rdi,0x0(%r13)
    3304:	49 83 c5 08          	add    $0x8,%r13
    3308:	49 89 5d 00          	mov    %rbx,0x0(%r13)
    330c:	49 83 c5 08          	add    $0x8,%r13
    3310:	b8 00 00 00 00       	mov    $0x0,%eax
    3315:	49 89 45 00          	mov    %rax,0x0(%r13)
    3319:	49 83 c5 08          	add    $0x8,%r13
    331d:	49 89 55 00          	mov    %rdx,0x0(%r13)
    3321:	49 83 c5 08          	add    $0x8,%r13
    3325:	b8 00 00 00 00       	mov    $0x0,%eax
    332a:	49 89 45 00          	mov    %rax,0x0(%r13)
    332e:	49 83 c5 08          	add    $0x8,%r13
    3332:	4d 89 75 00          	mov    %r14,0x0(%r13)
    3336:	49 83 c5 08          	add    $0x8,%r13
    333a:	b8 00 00 00 00       	mov    $0x0,%eax
    333f:	49 89 45 00          	mov    %rax,0x0(%r13)
    3343:	49 83 c5 08          	add    $0x8,%r13
    3347:	b8 00 00 00 00       	mov    $0x0,%eax
    334c:	49 89 45 00          	mov    %rax,0x0(%r13)
    3350:	49 83 c5 08          	add    $0x8,%r13
    3354:	b8 00 00 00 00       	mov    $0x0,%eax
    3359:	49 89 45 00          	mov    %rax,0x0(%r13)
    335d:	49 83 c5 08          	add    $0x8,%r13
    3361:	49 89 75 00          	mov    %rsi,0x0(%r13)
    3365:	49 83 c5 08          	add    $0x8,%r13
    3369:	49 89 75 00          	mov    %rsi,0x0(%r13)
    336d:	49 83 c5 08          	add    $0x8,%r13
    3371:	4d 89 45 00          	mov    %r8,0x0(%r13)
    3375:	49 83 c5 08          	add    $0x8,%r13
    3379:	49 89 75 00          	mov    %rsi,0x0(%r13)
    337d:	49 83 c5 08          	add    $0x8,%r13
    3381:	4d 89 75 00          	mov    %r14,0x0(%r13)
    3385:	49 83 c5 08          	add    $0x8,%r13
    3389:	48 8d 05 06 00 00 00 	lea    0x6(%rip),%rax        # 3396 <cml__Halt0_1>
    3390:	e9 41 04 00 00       	jmp    37d6 <cml_main_6>
    3395:	90                   	nop

0000000000003396 <cml__Halt0_1>:
    3396:	bf 00 00 00 00       	mov    $0x0,%edi
    339b:	90                   	nop
    339c:	e9 df fc ff ff       	jmp    3080 <cake_exit>
    33a1:	90                   	nop

00000000000033a2 <cml__Halt2_2>:
    33a2:	bf 02 00 00 00       	mov    $0x2,%edi
    33a7:	90                   	nop
    33a8:	e9 d3 fc ff ff       	jmp    3080 <cake_exit>
    33ad:	90                   	nop

00000000000033ae <cml__GC_3>:
    33ae:	49 89 7d d0          	mov    %rdi,-0x30(%r13)
    33b2:	49 89 45 f8          	mov    %rax,-0x8(%r13)
    33b6:	bf 00 00 00 00       	mov    $0x0,%edi
    33bb:	48 89 fe             	mov    %rdi,%rsi
    33be:	49 8b 55 e0          	mov    -0x20(%r13),%rdx
    33c2:	48 89 f9             	mov    %rdi,%rcx
    33c5:	4d 8b 45 c0          	mov    -0x40(%r13),%r8
    33c9:	49 89 f9             	mov    %rdi,%r9
    33cc:	49 89 ff             	mov    %rdi,%r15
    33cf:	49 f7 c0 01 00 00 00 	test   $0x1,%r8
    33d6:	0f 84 96 00 00 00    	je     3472 <cml__GC_3+0xc4>
    33dc:	4c 89 c0             	mov    %r8,%rax
    33df:	4c 89 f7             	mov    %r14,%rdi
    33e2:	48 c1 e8 0c          	shr    $0xc,%rax
    33e6:	48 c1 e0 03          	shl    $0x3,%rax
    33ea:	48 01 f8             	add    %rdi,%rax
    33ed:	48 8b 38             	mov    (%rax),%rdi
    33f0:	48 f7 c7 03 00 00 00 	test   $0x3,%rdi
    33f7:	0f 84 61 00 00 00    	je     345e <cml__GC_3+0xb0>
    33fd:	48 c1 ef 20          	shr    $0x20,%rdi
    3401:	48 83 c7 01          	add    $0x1,%rdi
    3405:	49 89 f9             	mov    %rdi,%r9
    3408:	48 89 c6             	mov    %rax,%rsi
    340b:	48 89 f8             	mov    %rdi,%rax
    340e:	48 83 f8 00          	cmp    $0x0,%rax
    3412:	0f 84 18 00 00 00    	je     3430 <cml__GC_3+0x82>
    3418:	48 8b 3e             	mov    (%rsi),%rdi
    341b:	48 83 c6 08          	add    $0x8,%rsi
    341f:	48 83 e8 01          	sub    $0x1,%rax
    3423:	48 89 3a             	mov    %rdi,(%rdx)
    3426:	48 83 c2 08          	add    $0x8,%rdx
    342a:	e9 df ff ff ff       	jmp    340e <cml__GC_3+0x60>
    342f:	90                   	nop
    3430:	4c 89 c8             	mov    %r9,%rax
    3433:	48 c1 e0 03          	shl    $0x3,%rax
    3437:	48 29 c6             	sub    %rax,%rsi
    343a:	48 89 c8             	mov    %rcx,%rax
    343d:	48 c1 e0 02          	shl    $0x2,%rax
    3441:	48 89 06             	mov    %rax,(%rsi)
    3444:	48 89 cf             	mov    %rcx,%rdi
    3447:	49 c1 e0 37          	shl    $0x37,%r8
    344b:	49 c1 e8 37          	shr    $0x37,%r8
    344f:	48 c1 e7 0c          	shl    $0xc,%rdi
    3453:	49 09 f8             	or     %rdi,%r8
    3456:	4c 01 c9             	add    %r9,%rcx
    3459:	e9 14 00 00 00       	jmp    3472 <cml__GC_3+0xc4>
    345e:	48 c1 ef 02          	shr    $0x2,%rdi
    3462:	48 c1 e7 0c          	shl    $0xc,%rdi
    3466:	49 c1 e0 37          	shl    $0x37,%r8
    346a:	49 c1 e8 37          	shr    $0x37,%r8
    346e:	49 09 f8             	or     %rdi,%r8
    3471:	90                   	nop
    3472:	4d 89 45 c0          	mov    %r8,-0x40(%r13)
    3476:	4c 89 c3             	mov    %r8,%rbx
    3479:	48 c1 eb 0c          	shr    $0xc,%rbx
    347d:	48 c1 e3 03          	shl    $0x3,%rbx
    3481:	4d 8b 5d e0          	mov    -0x20(%r13),%r11
    3485:	4c 01 db             	add    %r11,%rbx
    3488:	49 89 5d b8          	mov    %rbx,-0x48(%r13)
    348c:	bb 00 00 00 00       	mov    $0x0,%ebx
    3491:	4d 89 fb             	mov    %r15,%r11
    3494:	4d 01 e3             	add    %r12,%r11
    3497:	4d 8b 1b             	mov    (%r11),%r11
    349a:	49 89 df             	mov    %rbx,%r15
    349d:	90                   	nop
    349e:	4d 85 db             	test   %r11,%r11
    34a1:	0f 84 35 01 00 00    	je     35dc <cml__GC_3+0x22e>
    34a7:	4c 89 d8             	mov    %r11,%rax
    34aa:	49 83 eb 01          	sub    $0x1,%r11
    34ae:	49 83 c7 08          	add    $0x8,%r15
    34b2:	48 85 c0             	test   %rax,%rax
    34b5:	0f 84 13 01 00 00    	je     35ce <cml__GC_3+0x220>
    34bb:	49 8b 5d a8          	mov    -0x58(%r13),%rbx
    34bf:	4c 01 db             	add    %r11,%rbx
    34c2:	48 c1 e3 03          	shl    $0x3,%rbx
    34c6:	48 8b 1b             	mov    (%rbx),%rbx
    34c9:	90                   	nop
    34ca:	48 83 fb 02          	cmp    $0x2,%rbx
    34ce:	0f 82 de 00 00 00    	jb     35b2 <cml__GC_3+0x204>
    34d4:	48 f7 c3 01 00 00 00 	test   $0x1,%rbx
    34db:	0f 84 c3 00 00 00    	je     35a4 <cml__GC_3+0x1f6>
    34e1:	4d 89 f8             	mov    %r15,%r8
    34e4:	4d 01 e0             	add    %r12,%r8
    34e7:	4d 8b 00             	mov    (%r8),%r8
    34ea:	48 d1 eb             	shr    $1,%rbx
    34ed:	49 f7 c0 01 00 00 00 	test   $0x1,%r8
    34f4:	0f 84 96 00 00 00    	je     3590 <cml__GC_3+0x1e2>
    34fa:	4c 89 c0             	mov    %r8,%rax
    34fd:	4c 89 f7             	mov    %r14,%rdi
    3500:	48 c1 e8 0c          	shr    $0xc,%rax
    3504:	48 c1 e0 03          	shl    $0x3,%rax
    3508:	48 01 f8             	add    %rdi,%rax
    350b:	48 8b 38             	mov    (%rax),%rdi
    350e:	48 f7 c7 03 00 00 00 	test   $0x3,%rdi
    3515:	0f 84 61 00 00 00    	je     357c <cml__GC_3+0x1ce>
    351b:	48 c1 ef 20          	shr    $0x20,%rdi
    351f:	48 83 c7 01          	add    $0x1,%rdi
    3523:	49 89 f9             	mov    %rdi,%r9
    3526:	48 89 c6             	mov    %rax,%rsi
    3529:	48 89 f8             	mov    %rdi,%rax
    352c:	48 83 f8 00          	cmp    $0x0,%rax
    3530:	0f 84 18 00 00 00    	je     354e <cml__GC_3+0x1a0>
    3536:	48 8b 3e             	mov    (%rsi),%rdi
    3539:	48 83 c6 08          	add    $0x8,%rsi
    353d:	48 83 e8 01          	sub    $0x1,%rax
    3541:	48 89 3a             	mov    %rdi,(%rdx)
    3544:	48 83 c2 08          	add    $0x8,%rdx
    3548:	e9 df ff ff ff       	jmp    352c <cml__GC_3+0x17e>
    354d:	90                   	nop
    354e:	4c 89 c8             	mov    %r9,%rax
    3551:	48 c1 e0 03          	shl    $0x3,%rax
    3555:	48 29 c6             	sub    %rax,%rsi
    3558:	48 89 c8             	mov    %rcx,%rax
    355b:	48 c1 e0 02          	shl    $0x2,%rax
    355f:	48 89 06             	mov    %rax,(%rsi)
    3562:	48 89 cf             	mov    %rcx,%rdi
    3565:	49 c1 e0 37          	shl    $0x37,%r8
    3569:	49 c1 e8 37          	shr    $0x37,%r8
    356d:	48 c1 e7 0c          	shl    $0xc,%rdi
    3571:	49 09 f8             	or     %rdi,%r8
    3574:	4c 01 c9             	add    %r9,%rcx
    3577:	e9 14 00 00 00       	jmp    3590 <cml__GC_3+0x1e2>
    357c:	48 c1 ef 02          	shr    $0x2,%rdi
    3580:	48 c1 e7 0c          	shl    $0xc,%rdi
    3584:	49 c1 e0 37          	shl    $0x37,%r8
    3588:	49 c1 e8 37          	shr    $0x37,%r8
    358c:	49 09 f8             	or     %rdi,%r8
    358f:	90                   	nop
    3590:	4d 01 fc             	add    %r15,%r12
    3593:	4d 89 04 24          	mov    %r8,(%r12)
    3597:	4d 29 fc             	sub    %r15,%r12
    359a:	49 83 c7 08          	add    $0x8,%r15
    359e:	e9 09 00 00 00       	jmp    35ac <cml__GC_3+0x1fe>
    35a3:	90                   	nop
    35a4:	48 d1 eb             	shr    $1,%rbx
    35a7:	49 83 c7 08          	add    $0x8,%r15
    35ab:	90                   	nop
    35ac:	e9 19 ff ff ff       	jmp    34ca <cml__GC_3+0x11c>
    35b1:	90                   	nop
    35b2:	49 8b 45 a8          	mov    -0x58(%r13),%rax
    35b6:	4c 01 d8             	add    %r11,%rax
    35b9:	48 c1 e0 03          	shl    $0x3,%rax
    35bd:	48 8b 00             	mov    (%rax),%rax
    35c0:	49 83 c3 01          	add    $0x1,%r11
    35c4:	48 c1 e8 3f          	shr    $0x3f,%rax
    35c8:	e9 e5 fe ff ff       	jmp    34b2 <cml__GC_3+0x104>
    35cd:	90                   	nop
    35ce:	4d 89 fb             	mov    %r15,%r11
    35d1:	4d 01 e3             	add    %r12,%r11
    35d4:	4d 8b 1b             	mov    (%r11),%r11
    35d7:	e9 c2 fe ff ff       	jmp    349e <cml__GC_3+0xf0>
    35dc:	4d 8b 7d e0          	mov    -0x20(%r13),%r15
    35e0:	4c 39 fa             	cmp    %r15,%rdx
    35e3:	0f 84 f3 00 00 00    	je     36dc <cml__GC_3+0x32e>
    35e9:	49 8b 1f             	mov    (%r15),%rbx
    35ec:	48 f7 c3 04 00 00 00 	test   $0x4,%rbx
    35f3:	0f 84 15 00 00 00    	je     360e <cml__GC_3+0x260>
    35f9:	48 c1 eb 20          	shr    $0x20,%rbx
    35fd:	48 83 c3 01          	add    $0x1,%rbx
    3601:	48 c1 e3 03          	shl    $0x3,%rbx
    3605:	49 01 df             	add    %rbx,%r15
    3608:	e9 c9 00 00 00       	jmp    36d6 <cml__GC_3+0x328>
    360d:	90                   	nop
    360e:	48 c1 eb 20          	shr    $0x20,%rbx
    3612:	49 83 c7 08          	add    $0x8,%r15
    3616:	48 83 fb 00          	cmp    $0x0,%rbx
    361a:	0f 84 b6 00 00 00    	je     36d6 <cml__GC_3+0x328>
    3620:	4d 8b 07             	mov    (%r15),%r8
    3623:	48 83 eb 01          	sub    $0x1,%rbx
    3627:	49 f7 c0 01 00 00 00 	test   $0x1,%r8
    362e:	0f 84 96 00 00 00    	je     36ca <cml__GC_3+0x31c>
    3634:	4c 89 c0             	mov    %r8,%rax
    3637:	4c 89 f7             	mov    %r14,%rdi
    363a:	48 c1 e8 0c          	shr    $0xc,%rax
    363e:	48 c1 e0 03          	shl    $0x3,%rax
    3642:	48 01 f8             	add    %rdi,%rax
    3645:	48 8b 38             	mov    (%rax),%rdi
    3648:	48 f7 c7 03 00 00 00 	test   $0x3,%rdi
    364f:	0f 84 61 00 00 00    	je     36b6 <cml__GC_3+0x308>
    3655:	48 c1 ef 20          	shr    $0x20,%rdi
    3659:	48 83 c7 01          	add    $0x1,%rdi
    365d:	49 89 f9             	mov    %rdi,%r9
    3660:	48 89 c6             	mov    %rax,%rsi
    3663:	48 89 f8             	mov    %rdi,%rax
    3666:	48 83 f8 00          	cmp    $0x0,%rax
    366a:	0f 84 18 00 00 00    	je     3688 <cml__GC_3+0x2da>
    3670:	48 8b 3e             	mov    (%rsi),%rdi
    3673:	48 83 c6 08          	add    $0x8,%rsi
    3677:	48 83 e8 01          	sub    $0x1,%rax
    367b:	48 89 3a             	mov    %rdi,(%rdx)
    367e:	48 83 c2 08          	add    $0x8,%rdx
    3682:	e9 df ff ff ff       	jmp    3666 <cml__GC_3+0x2b8>
    3687:	90                   	nop
    3688:	4c 89 c8             	mov    %r9,%rax
    368b:	48 c1 e0 03          	shl    $0x3,%rax
    368f:	48 29 c6             	sub    %rax,%rsi
    3692:	48 89 c8             	mov    %rcx,%rax
    3695:	48 c1 e0 02          	shl    $0x2,%rax
    3699:	48 89 06             	mov    %rax,(%rsi)
    369c:	48 89 cf             	mov    %rcx,%rdi
    369f:	49 c1 e0 37          	shl    $0x37,%r8
    36a3:	49 c1 e8 37          	shr    $0x37,%r8
    36a7:	48 c1 e7 0c          	shl    $0xc,%rdi
    36ab:	49 09 f8             	or     %rdi,%r8
    36ae:	4c 01 c9             	add    %r9,%rcx
    36b1:	e9 14 00 00 00       	jmp    36ca <cml__GC_3+0x31c>
    36b6:	48 c1 ef 02          	shr    $0x2,%rdi
    36ba:	48 c1 e7 0c          	shl    $0xc,%rdi
    36be:	49 c1 e0 37          	shl    $0x37,%r8
    36c2:	49 c1 e8 37          	shr    $0x37,%r8
    36c6:	49 09 f8             	or     %rdi,%r8
    36c9:	90                   	nop
    36ca:	4d 89 07             	mov    %r8,(%r15)
    36cd:	49 83 c7 08          	add    $0x8,%r15
    36d1:	e9 40 ff ff ff       	jmp    3616 <cml__GC_3+0x268>
    36d6:	e9 05 ff ff ff       	jmp    35e0 <cml__GC_3+0x232>
    36db:	90                   	nop
    36dc:	4c 89 f0             	mov    %r14,%rax
    36df:	49 8b 7d e0          	mov    -0x20(%r13),%rdi
    36e3:	49 8b 75 e8          	mov    -0x18(%r13),%rsi
    36e7:	48 01 fe             	add    %rdi,%rsi
    36ea:	49 89 fe             	mov    %rdi,%r14
    36ed:	49 89 45 e0          	mov    %rax,-0x20(%r13)
    36f1:	49 8b 45 f8          	mov    -0x8(%r13),%rax
    36f5:	4d 89 7d f8          	mov    %r15,-0x8(%r13)
    36f9:	49 89 75 f0          	mov    %rsi,-0x10(%r13)
    36fd:	49 89 75 d8          	mov    %rsi,-0x28(%r13)
    3701:	49 8b 7d d0          	mov    -0x30(%r13),%rdi
    3705:	4c 29 fe             	sub    %r15,%rsi
    3708:	48 39 fe             	cmp    %rdi,%rsi
    370b:	0f 83 0b 00 00 00    	jae    371c <cml__GC_3+0x36e>
    3711:	bf 01 00 00 00       	mov    $0x1,%edi
    3716:	e9 65 f9 ff ff       	jmp    3080 <cake_exit>
    371b:	90                   	nop
    371c:	ff e0                	jmp    *%rax

000000000000371e <cml__Raise_4>:
    371e:	4d 8b 5d c8          	mov    -0x38(%r13),%r11
    3722:	49 c1 e3 03          	shl    $0x3,%r11
    3726:	4d 89 ec             	mov    %r13,%r12
    3729:	4d 01 dc             	add    %r11,%r12
    372c:	4d 8b 5c 24 10       	mov    0x10(%r12),%r11
    3731:	4d 89 5d c8          	mov    %r11,-0x38(%r13)
    3735:	4d 8b 5c 24 08       	mov    0x8(%r12),%r11
    373a:	49 83 c4 18          	add    $0x18,%r12
    373e:	41 ff e3             	jmp    *%r11
    3741:	90                   	nop

0000000000003742 <cml__StoreConsts_5>:
    3742:	4d 8b 55 a8          	mov    -0x58(%r13),%r10
    3746:	49 01 fa             	add    %rdi,%r10
    3749:	49 c1 e2 03          	shl    $0x3,%r10
    374d:	49 8b 3a             	mov    (%r10),%rdi
    3750:	49 83 c2 08          	add    $0x8,%r10
    3754:	48 83 ff 00          	cmp    $0x0,%rdi
    3758:	0f 8d 3e 00 00 00    	jge    379c <cml__StoreConsts_5+0x5a>
    375e:	48 83 ff 01          	cmp    $0x1,%rdi
    3762:	0f 84 28 00 00 00    	je     3790 <cml__StoreConsts_5+0x4e>
    3768:	4d 8b 1a             	mov    (%r10),%r11
    376b:	49 83 c2 08          	add    $0x8,%r10
    376f:	48 f7 c7 01 00 00 00 	test   $0x1,%rdi
    3776:	0f 84 04 00 00 00    	je     3780 <cml__StoreConsts_5+0x3e>
    377c:	49 01 d3             	add    %rdx,%r11
    377f:	90                   	nop
    3780:	48 d1 ef             	shr    $1,%rdi
    3783:	4c 89 1e             	mov    %r11,(%rsi)
    3786:	48 83 c6 08          	add    $0x8,%rsi
    378a:	e9 cf ff ff ff       	jmp    375e <cml__StoreConsts_5+0x1c>
    378f:	90                   	nop
    3790:	49 8b 3a             	mov    (%r10),%rdi
    3793:	49 83 c2 08          	add    $0x8,%r10
    3797:	e9 b8 ff ff ff       	jmp    3754 <cml__StoreConsts_5+0x12>
    379c:	48 83 ff 01          	cmp    $0x1,%rdi
    37a0:	0f 84 28 00 00 00    	je     37ce <cml__StoreConsts_5+0x8c>
    37a6:	4d 8b 1a             	mov    (%r10),%r11
    37a9:	49 83 c2 08          	add    $0x8,%r10
    37ad:	48 f7 c7 01 00 00 00 	test   $0x1,%rdi
    37b4:	0f 84 04 00 00 00    	je     37be <cml__StoreConsts_5+0x7c>
    37ba:	49 01 d3             	add    %rdx,%r11
    37bd:	90                   	nop
    37be:	48 d1 ef             	shr    $1,%rdi
    37c1:	4c 89 1e             	mov    %r11,(%rsi)
    37c4:	48 83 c6 08          	add    $0x8,%rsi
    37c8:	e9 cf ff ff ff       	jmp    379c <cml__StoreConsts_5+0x5a>
    37cd:	90                   	nop
    37ce:	49 89 fb             	mov    %rdi,%r11
    37d1:	49 89 fa             	mov    %rdi,%r10
    37d4:	ff e0                	jmp    *%rax

00000000000037d6 <cml_main_6>:
    37d6:	49 83 ec 18          	sub    $0x18,%r12
    37da:	4d 39 ec             	cmp    %r13,%r12
    37dd:	0f 82 bf fb ff ff    	jb     33a2 <cml__Halt2_2>
    37e3:	90                   	nop
    37e4:	49 89 c1             	mov    %rax,%r9
    37e7:	41 b8 08 00 00 00    	mov    $0x8,%r8d
    37ed:	4d 01 f0             	add    %r14,%r8
    37f0:	4c 89 f7             	mov    %r14,%rdi
    37f3:	48 89 fe             	mov    %rdi,%rsi
    37f6:	b8 00 00 00 00       	mov    $0x0,%eax
    37fb:	48 89 06             	mov    %rax,(%rsi)
    37fe:	b8 20 00 00 00       	mov    $0x20,%eax
    3803:	be 08 00 00 00       	mov    $0x8,%esi
    3808:	48 f7 e6             	mul    %rsi
    380b:	4c 89 c6             	mov    %r8,%rsi
    380e:	48 01 f0             	add    %rsi,%rax
    3811:	be 01 00 00 00       	mov    $0x1,%esi
    3816:	b9 01 00 00 00       	mov    $0x1,%ecx
    381b:	4d 89 4c 24 10       	mov    %r9,0x10(%r12)
    3820:	4d 89 44 24 08       	mov    %r8,0x8(%r12)
    3825:	48 89 c2             	mov    %rax,%rdx
    3828:	48 8d 05 05 00 00 00 	lea    0x5(%rip),%rax        # 3834 <cml_main_6+0x5e>
    382f:	e9 2c f8 ff ff       	jmp    3060 <cake_ffitransfer32>
    3834:	4d 8b 4c 24 10       	mov    0x10(%r12),%r9
    3839:	4d 8b 44 24 08       	mov    0x8(%r12),%r8
    383e:	4c 89 f7             	mov    %r14,%rdi
    3841:	48 89 fe             	mov    %rdi,%rsi
    3844:	b8 00 00 00 00       	mov    $0x0,%eax
    3849:	48 89 06             	mov    %rax,(%rsi)
    384c:	b8 20 00 00 00       	mov    $0x20,%eax
    3851:	be 08 00 00 00       	mov    $0x8,%esi
    3856:	48 f7 e6             	mul    %rsi
    3859:	48 89 c2             	mov    %rax,%rdx
    385c:	4c 89 c0             	mov    %r8,%rax
    385f:	48 01 c2             	add    %rax,%rdx
    3862:	48 83 c2 04          	add    $0x4,%rdx
    3866:	be 01 00 00 00       	mov    $0x1,%esi
    386b:	b9 01 00 00 00       	mov    $0x1,%ecx
    3870:	4d 89 4c 24 10       	mov    %r9,0x10(%r12)
    3875:	4d 89 44 24 08       	mov    %r8,0x8(%r12)
    387a:	48 8d 05 05 00 00 00 	lea    0x5(%rip),%rax        # 3886 <cml_main_6+0xb0>
    3881:	e9 da f7 ff ff       	jmp    3060 <cake_ffitransfer32>
    3886:	49 8b 44 24 10       	mov    0x10(%r12),%rax
    388b:	49 8b 54 24 08       	mov    0x8(%r12),%rdx
    3890:	48 89 d7             	mov    %rdx,%rdi
    3893:	be 00 00 00 00       	mov    $0x0,%esi
    3898:	49 89 44 24 10       	mov    %rax,0x10(%r12)
    389d:	49 89 54 24 08       	mov    %rdx,0x8(%r12)
    38a2:	41 bb 02 00 00 00    	mov    $0x2,%r11d
    38a8:	4d 89 1c 24          	mov    %r11,(%r12)
    38ac:	49 83 ec 18          	sub    $0x18,%r12
    38b0:	4d 39 ec             	cmp    %r13,%r12
    38b3:	0f 82 e9 fa ff ff    	jb     33a2 <cml__Halt2_2>
    38b9:	41 bb 01 00 00 00    	mov    $0x1,%r11d
    38bf:	4d 89 1c 24          	mov    %r11,(%r12)
    38c3:	4c 8d 1d 44 00 00 00 	lea    0x44(%rip),%r11        # 390e <cml_main_6+0x138>
    38ca:	4d 89 5c 24 08       	mov    %r11,0x8(%r12)
    38cf:	4d 8b 5d c8          	mov    -0x38(%r13),%r11
    38d3:	4d 89 5c 24 10       	mov    %r11,0x10(%r12)
    38d8:	4d 89 e3             	mov    %r12,%r11
    38db:	4d 29 eb             	sub    %r13,%r11
    38de:	49 c1 eb 03          	shr    $0x3,%r11
    38e2:	4d 89 5d c8          	mov    %r11,-0x38(%r13)
    38e6:	48 8d 05 05 00 00 00 	lea    0x5(%rip),%rax        # 38f2 <cml_main_6+0x11c>
    38ed:	e9 6c 02 00 00       	jmp    3b5e <cml_enqueue_9>
    38f2:	4d 8b 5c 24 10       	mov    0x10(%r12),%r11
    38f7:	4d 89 5d c8          	mov    %r11,-0x38(%r13)
    38fb:	49 83 c4 18          	add    $0x18,%r12
    38ff:	49 8b 54 24 10       	mov    0x10(%r12),%rdx
    3904:	49 8b 44 24 08       	mov    0x8(%r12),%rax
    3909:	e9 10 00 00 00       	jmp    391e <cml_main_6+0x148>
    390e:	49 8b 54 24 10       	mov    0x10(%r12),%rdx
    3913:	49 8b 44 24 08       	mov    0x8(%r12),%rax
    3918:	e9 01 fe ff ff       	jmp    371e <cml__Raise_4>
    391d:	90                   	nop
    391e:	48 89 c7             	mov    %rax,%rdi
    3921:	be 01 00 00 00       	mov    $0x1,%esi
    3926:	49 89 54 24 10       	mov    %rdx,0x10(%r12)
    392b:	41 bb 03 00 00 00    	mov    $0x3,%r11d
    3931:	4d 89 1c 24          	mov    %r11,(%r12)
    3935:	49 83 ec 18          	sub    $0x18,%r12
    3939:	4d 39 ec             	cmp    %r13,%r12
    393c:	0f 82 60 fa ff ff    	jb     33a2 <cml__Halt2_2>
    3942:	41 bb 01 00 00 00    	mov    $0x1,%r11d
    3948:	4d 89 1c 24          	mov    %r11,(%r12)
    394c:	4c 8d 1d 41 00 00 00 	lea    0x41(%rip),%r11        # 3994 <cml_main_6+0x1be>
    3953:	4d 89 5c 24 08       	mov    %r11,0x8(%r12)
    3958:	4d 8b 5d c8          	mov    -0x38(%r13),%r11
    395c:	4d 89 5c 24 10       	mov    %r11,0x10(%r12)
    3961:	4d 89 e3             	mov    %r12,%r11
    3964:	4d 29 eb             	sub    %r13,%r11
    3967:	49 c1 eb 03          	shr    $0x3,%r11
    396b:	4d 89 5d c8          	mov    %r11,-0x38(%r13)
    396f:	48 8d 05 06 00 00 00 	lea    0x6(%rip),%rax        # 397c <cml_main_6+0x1a6>
    3976:	e9 e3 01 00 00       	jmp    3b5e <cml_enqueue_9>
    397b:	90                   	nop
    397c:	4d 8b 5c 24 10       	mov    0x10(%r12),%r11
    3981:	4d 89 5d c8          	mov    %r11,-0x38(%r13)
    3985:	49 83 c4 18          	add    $0x18,%r12
    3989:	49 8b 44 24 10       	mov    0x10(%r12),%rax
    398e:	e9 0b 00 00 00       	jmp    399e <cml_main_6+0x1c8>
    3993:	90                   	nop
    3994:	49 8b 44 24 10       	mov    0x10(%r12),%rax
    3999:	e9 80 fd ff ff       	jmp    371e <cml__Raise_4>
    399e:	bf 00 00 00 00       	mov    $0x0,%edi
    39a3:	49 83 c4 18          	add    $0x18,%r12
    39a7:	ff e0                	jmp    *%rax
    39a9:	90                   	nop

00000000000039aa <cml_isEmpty_7>:
    39aa:	49 83 ec 20          	sub    $0x20,%r12
    39ae:	4d 39 ec             	cmp    %r13,%r12
    39b1:	0f 82 eb f9 ff ff    	jb     33a2 <cml__Halt2_2>
    39b7:	90                   	nop
    39b8:	49 89 c0             	mov    %rax,%r8
    39bb:	b8 20 00 00 00       	mov    $0x20,%eax
    39c0:	be 08 00 00 00       	mov    $0x8,%esi
    39c5:	48 f7 e6             	mul    %rsi
    39c8:	48 01 f8             	add    %rdi,%rax
    39cb:	4d 89 f1             	mov    %r14,%r9
    39ce:	be 01 00 00 00       	mov    $0x1,%esi
    39d3:	4c 89 ca             	mov    %r9,%rdx
    39d6:	b9 01 00 00 00       	mov    $0x1,%ecx
    39db:	4d 89 44 24 18       	mov    %r8,0x18(%r12)
    39e0:	4d 89 4c 24 10       	mov    %r9,0x10(%r12)
    39e5:	49 89 7c 24 08       	mov    %rdi,0x8(%r12)
    39ea:	48 89 c7             	mov    %rax,%rdi
    39ed:	48 8d 05 06 00 00 00 	lea    0x6(%rip),%rax        # 39fa <cml_isEmpty_7+0x50>
    39f4:	e9 67 f6 ff ff       	jmp    3060 <cake_ffitransfer32>
    39f9:	90                   	nop
    39fa:	4d 8b 44 24 18       	mov    0x18(%r12),%r8
    39ff:	49 8b 44 24 10       	mov    0x10(%r12),%rax
    3a04:	49 8b 4c 24 08       	mov    0x8(%r12),%rcx
    3a09:	4c 8b 08             	mov    (%rax),%r9
    3a0c:	b8 20 00 00 00       	mov    $0x20,%eax
    3a11:	be 08 00 00 00       	mov    $0x8,%esi
    3a16:	48 f7 e6             	mul    %rsi
    3a19:	48 89 c7             	mov    %rax,%rdi
    3a1c:	48 01 cf             	add    %rcx,%rdi
    3a1f:	48 83 c7 04          	add    $0x4,%rdi
    3a23:	4c 89 f0             	mov    %r14,%rax
    3a26:	be 01 00 00 00       	mov    $0x1,%esi
    3a2b:	48 89 c2             	mov    %rax,%rdx
    3a2e:	b9 01 00 00 00       	mov    $0x1,%ecx
    3a33:	4d 89 44 24 18       	mov    %r8,0x18(%r12)
    3a38:	4d 89 4c 24 10       	mov    %r9,0x10(%r12)
    3a3d:	49 89 44 24 08       	mov    %rax,0x8(%r12)
    3a42:	48 8d 05 05 00 00 00 	lea    0x5(%rip),%rax        # 3a4e <cml_isEmpty_7+0xa4>
    3a49:	e9 12 f6 ff ff       	jmp    3060 <cake_ffitransfer32>
    3a4e:	49 8b 74 24 18       	mov    0x18(%r12),%rsi
    3a53:	49 8b 44 24 10       	mov    0x10(%r12),%rax
    3a58:	49 8b 7c 24 08       	mov    0x8(%r12),%rdi
    3a5d:	48 8b 3f             	mov    (%rdi),%rdi
    3a60:	48 39 f8             	cmp    %rdi,%rax
    3a63:	0f 84 0b 00 00 00    	je     3a74 <cml_isEmpty_7+0xca>
    3a69:	bf 00 00 00 00       	mov    $0x0,%edi
    3a6e:	e9 07 00 00 00       	jmp    3a7a <cml_isEmpty_7+0xd0>
    3a73:	90                   	nop
    3a74:	bf 01 00 00 00       	mov    $0x1,%edi
    3a79:	90                   	nop
    3a7a:	49 83 c4 20          	add    $0x20,%r12
    3a7e:	ff e6                	jmp    *%rsi

0000000000003a80 <cml_isFull_8>:
    3a80:	49 83 ec 20          	sub    $0x20,%r12
    3a84:	4d 39 ec             	cmp    %r13,%r12
    3a87:	0f 82 15 f9 ff ff    	jb     33a2 <cml__Halt2_2>
    3a8d:	90                   	nop
    3a8e:	49 89 c0             	mov    %rax,%r8
    3a91:	b8 20 00 00 00       	mov    $0x20,%eax
    3a96:	be 08 00 00 00       	mov    $0x8,%esi
    3a9b:	48 f7 e6             	mul    %rsi
    3a9e:	48 01 f8             	add    %rdi,%rax
    3aa1:	4d 89 f1             	mov    %r14,%r9
    3aa4:	be 01 00 00 00       	mov    $0x1,%esi
    3aa9:	4c 89 ca             	mov    %r9,%rdx
    3aac:	b9 01 00 00 00       	mov    $0x1,%ecx
    3ab1:	4d 89 44 24 18       	mov    %r8,0x18(%r12)
    3ab6:	49 89 7c 24 10       	mov    %rdi,0x10(%r12)
    3abb:	4d 89 4c 24 08       	mov    %r9,0x8(%r12)
    3ac0:	48 89 c7             	mov    %rax,%rdi
    3ac3:	48 8d 05 06 00 00 00 	lea    0x6(%rip),%rax        # 3ad0 <cml_isFull_8+0x50>
    3aca:	e9 91 f5 ff ff       	jmp    3060 <cake_ffitransfer32>
    3acf:	90                   	nop
    3ad0:	4d 8b 44 24 18       	mov    0x18(%r12),%r8
    3ad5:	49 8b 4c 24 10       	mov    0x10(%r12),%rcx
    3ada:	49 8b 44 24 08       	mov    0x8(%r12),%rax
    3adf:	4c 8b 08             	mov    (%rax),%r9
    3ae2:	b8 20 00 00 00       	mov    $0x20,%eax
    3ae7:	be 08 00 00 00       	mov    $0x8,%esi
    3aec:	48 f7 e6             	mul    %rsi
    3aef:	48 89 c7             	mov    %rax,%rdi
    3af2:	48 01 cf             	add    %rcx,%rdi
    3af5:	48 83 c7 04          	add    $0x4,%rdi
    3af9:	4c 89 f0             	mov    %r14,%rax
    3afc:	be 01 00 00 00       	mov    $0x1,%esi
    3b01:	48 89 c2             	mov    %rax,%rdx
    3b04:	b9 01 00 00 00       	mov    $0x1,%ecx
    3b09:	4d 89 44 24 18       	mov    %r8,0x18(%r12)
    3b0e:	4d 89 4c 24 10       	mov    %r9,0x10(%r12)
    3b13:	49 89 44 24 08       	mov    %rax,0x8(%r12)
    3b18:	48 8d 05 05 00 00 00 	lea    0x5(%rip),%rax        # 3b24 <cml_isFull_8+0xa4>
    3b1f:	e9 3c f5 ff ff       	jmp    3060 <cake_ffitransfer32>
    3b24:	49 8b 74 24 18       	mov    0x18(%r12),%rsi
    3b29:	49 8b 44 24 10       	mov    0x10(%r12),%rax
    3b2e:	49 8b 7c 24 08       	mov    0x8(%r12),%rdi
    3b33:	48 8b 3f             	mov    (%rdi),%rdi
    3b36:	48 83 c7 01          	add    $0x1,%rdi
    3b3a:	48 83 e7 1f          	and    $0x1f,%rdi
    3b3e:	48 39 f8             	cmp    %rdi,%rax
    3b41:	0f 84 0b 00 00 00    	je     3b52 <cml_isFull_8+0xd2>
    3b47:	bf 00 00 00 00       	mov    $0x0,%edi
    3b4c:	e9 07 00 00 00       	jmp    3b58 <cml_isFull_8+0xd8>
    3b51:	90                   	nop
    3b52:	bf 01 00 00 00       	mov    $0x1,%edi
    3b57:	90                   	nop
    3b58:	49 83 c4 20          	add    $0x20,%r12
    3b5c:	ff e6                	jmp    *%rsi

0000000000003b5e <cml_enqueue_9>:
    3b5e:	49 83 ec 28          	sub    $0x28,%r12
    3b62:	4d 39 ec             	cmp    %r13,%r12
    3b65:	0f 82 37 f8 ff ff    	jb     33a2 <cml__Halt2_2>
    3b6b:	90                   	nop
    3b6c:	49 89 44 24 20       	mov    %rax,0x20(%r12)
    3b71:	49 89 74 24 18       	mov    %rsi,0x18(%r12)
    3b76:	49 89 7c 24 10       	mov    %rdi,0x10(%r12)
    3b7b:	41 bb 04 00 00 00    	mov    $0x4,%r11d
    3b81:	4d 89 1c 24          	mov    %r11,(%r12)
    3b85:	49 83 ec 18          	sub    $0x18,%r12
    3b89:	4d 39 ec             	cmp    %r13,%r12
    3b8c:	0f 82 10 f8 ff ff    	jb     33a2 <cml__Halt2_2>
    3b92:	41 bb 01 00 00 00    	mov    $0x1,%r11d
    3b98:	4d 89 1c 24          	mov    %r11,(%r12)
    3b9c:	4c 8d 1d 2d 01 00 00 	lea    0x12d(%rip),%r11        # 3cd0 <cml_enqueue_9+0x172>
    3ba3:	4d 89 5c 24 08       	mov    %r11,0x8(%r12)
    3ba8:	4d 8b 5d c8          	mov    -0x38(%r13),%r11
    3bac:	4d 89 5c 24 10       	mov    %r11,0x10(%r12)
    3bb1:	4d 89 e3             	mov    %r12,%r11
    3bb4:	4d 29 eb             	sub    %r13,%r11
    3bb7:	49 c1 eb 03          	shr    $0x3,%r11
    3bbb:	4d 89 5d c8          	mov    %r11,-0x38(%r13)
    3bbf:	48 8d 05 06 00 00 00 	lea    0x6(%rip),%rax        # 3bcc <cml_enqueue_9+0x6e>
    3bc6:	e9 b5 fe ff ff       	jmp    3a80 <cml_isFull_8>
    3bcb:	90                   	nop
    3bcc:	4d 8b 5c 24 10       	mov    0x10(%r12),%r11
    3bd1:	4d 89 5d c8          	mov    %r11,-0x38(%r13)
    3bd5:	49 83 c4 18          	add    $0x18,%r12
    3bd9:	49 8b 5c 24 20       	mov    0x20(%r12),%rbx
    3bde:	4d 8b 4c 24 18       	mov    0x18(%r12),%r9
    3be3:	4d 8b 44 24 10       	mov    0x10(%r12),%r8
    3be8:	48 83 ff 00          	cmp    $0x0,%rdi
    3bec:	0f 84 10 00 00 00    	je     3c02 <cml_enqueue_9+0xa4>
    3bf2:	48 bf ff ff ff ff ff 	movabs $0xffffffffffffffff,%rdi
    3bf9:	ff ff ff 
    3bfc:	49 83 c4 28          	add    $0x28,%r12
    3c00:	ff e3                	jmp    *%rbx
    3c02:	b8 20 00 00 00       	mov    $0x20,%eax
    3c07:	be 08 00 00 00       	mov    $0x8,%esi
    3c0c:	48 f7 e6             	mul    %rsi
    3c0f:	4c 89 c7             	mov    %r8,%rdi
    3c12:	48 01 f8             	add    %rdi,%rax
    3c15:	48 83 c0 04          	add    $0x4,%rax
    3c19:	4c 89 f7             	mov    %r14,%rdi
    3c1c:	be 01 00 00 00       	mov    $0x1,%esi
    3c21:	48 89 fa             	mov    %rdi,%rdx
    3c24:	b9 01 00 00 00       	mov    $0x1,%ecx
    3c29:	49 89 5c 24 20       	mov    %rbx,0x20(%r12)
    3c2e:	49 89 7c 24 18       	mov    %rdi,0x18(%r12)
    3c33:	4d 89 4c 24 10       	mov    %r9,0x10(%r12)
    3c38:	4d 89 44 24 08       	mov    %r8,0x8(%r12)
    3c3d:	48 89 c7             	mov    %rax,%rdi
    3c40:	48 8d 05 05 00 00 00 	lea    0x5(%rip),%rax        # 3c4c <cml_enqueue_9+0xee>
    3c47:	e9 14 f4 ff ff       	jmp    3060 <cake_ffitransfer32>
    3c4c:	4d 8b 4c 24 20       	mov    0x20(%r12),%r9
    3c51:	49 8b 44 24 18       	mov    0x18(%r12),%rax
    3c56:	49 8b 7c 24 10       	mov    0x10(%r12),%rdi
    3c5b:	4d 8b 44 24 08       	mov    0x8(%r12),%r8
    3c60:	48 8b 08             	mov    (%rax),%rcx
    3c63:	48 89 c8             	mov    %rcx,%rax
    3c66:	be 08 00 00 00       	mov    $0x8,%esi
    3c6b:	48 f7 e6             	mul    %rsi
    3c6e:	4c 89 c6             	mov    %r8,%rsi
    3c71:	48 01 f0             	add    %rsi,%rax
    3c74:	48 89 38             	mov    %rdi,(%rax)
    3c77:	48 83 c1 01          	add    $0x1,%rcx
    3c7b:	48 83 e1 1f          	and    $0x1f,%rcx
    3c7f:	4c 89 f7             	mov    %r14,%rdi
    3c82:	48 89 f8             	mov    %rdi,%rax
    3c85:	48 89 08             	mov    %rcx,(%rax)
    3c88:	b8 20 00 00 00       	mov    $0x20,%eax
    3c8d:	be 08 00 00 00       	mov    $0x8,%esi
    3c92:	48 f7 e6             	mul    %rsi
    3c95:	48 89 c2             	mov    %rax,%rdx
    3c98:	4c 01 c2             	add    %r8,%rdx
    3c9b:	48 83 c2 04          	add    $0x4,%rdx
    3c9f:	be 01 00 00 00       	mov    $0x1,%esi
    3ca4:	b9 01 00 00 00       	mov    $0x1,%ecx
    3ca9:	4d 89 4c 24 20       	mov    %r9,0x20(%r12)
    3cae:	48 8d 05 05 00 00 00 	lea    0x5(%rip),%rax        # 3cba <cml_enqueue_9+0x15c>
    3cb5:	e9 a6 f3 ff ff       	jmp    3060 <cake_ffitransfer32>
    3cba:	49 8b 44 24 20       	mov    0x20(%r12),%rax
    3cbf:	bf 00 00 00 00       	mov    $0x0,%edi
    3cc4:	49 83 c4 28          	add    $0x28,%r12
    3cc8:	ff e0                	jmp    *%rax
    3cca:	e9 07 00 00 00       	jmp    3cd6 <cml_dequeue_10>
    3ccf:	90                   	nop
    3cd0:	e9 49 fa ff ff       	jmp    371e <cml__Raise_4>
    3cd5:	90                   	nop

0000000000003cd6 <cml_dequeue_10>:
    3cd6:	49 83 ec 20          	sub    $0x20,%r12
    3cda:	4d 39 ec             	cmp    %r13,%r12
    3cdd:	0f 82 bf f6 ff ff    	jb     33a2 <cml__Halt2_2>
    3ce3:	90                   	nop
    3ce4:	49 89 44 24 18       	mov    %rax,0x18(%r12)
    3ce9:	49 89 7c 24 10       	mov    %rdi,0x10(%r12)
    3cee:	41 bb 05 00 00 00    	mov    $0x5,%r11d
    3cf4:	4d 89 1c 24          	mov    %r11,(%r12)
    3cf8:	49 83 ec 18          	sub    $0x18,%r12
    3cfc:	4d 39 ec             	cmp    %r13,%r12
    3cff:	0f 82 9d f6 ff ff    	jb     33a2 <cml__Halt2_2>
    3d05:	41 bb 01 00 00 00    	mov    $0x1,%r11d
    3d0b:	4d 89 1c 24          	mov    %r11,(%r12)
    3d0f:	4c 8d 1d 1c 01 00 00 	lea    0x11c(%rip),%r11        # 3e32 <cml_dequeue_10+0x15c>
    3d16:	4d 89 5c 24 08       	mov    %r11,0x8(%r12)
    3d1b:	4d 8b 5d c8          	mov    -0x38(%r13),%r11
    3d1f:	4d 89 5c 24 10       	mov    %r11,0x10(%r12)
    3d24:	4d 89 e3             	mov    %r12,%r11
    3d27:	4d 29 eb             	sub    %r13,%r11
    3d2a:	49 c1 eb 03          	shr    $0x3,%r11
    3d2e:	4d 89 5d c8          	mov    %r11,-0x38(%r13)
    3d32:	48 8d 05 05 00 00 00 	lea    0x5(%rip),%rax        # 3d3e <cml_dequeue_10+0x68>
    3d39:	e9 6c fc ff ff       	jmp    39aa <cml_isEmpty_7>
    3d3e:	4d 8b 5c 24 10       	mov    0x10(%r12),%r11
    3d43:	4d 89 5d c8          	mov    %r11,-0x38(%r13)
    3d47:	49 83 c4 18          	add    $0x18,%r12
    3d4b:	4d 8b 4c 24 18       	mov    0x18(%r12),%r9
    3d50:	4d 8b 44 24 10       	mov    0x10(%r12),%r8
    3d55:	48 83 ff 00          	cmp    $0x0,%rdi
    3d59:	0f 84 11 00 00 00    	je     3d70 <cml_dequeue_10+0x9a>
    3d5f:	48 bf ff ff ff ff ff 	movabs $0xffffffffffffffff,%rdi
    3d66:	ff ff ff 
    3d69:	49 83 c4 20          	add    $0x20,%r12
    3d6d:	41 ff e1             	jmp    *%r9
    3d70:	b8 20 00 00 00       	mov    $0x20,%eax
    3d75:	be 08 00 00 00       	mov    $0x8,%esi
    3d7a:	48 f7 e6             	mul    %rsi
    3d7d:	4c 89 c7             	mov    %r8,%rdi
    3d80:	48 01 f8             	add    %rdi,%rax
    3d83:	4c 89 f7             	mov    %r14,%rdi
    3d86:	be 01 00 00 00       	mov    $0x1,%esi
    3d8b:	48 89 fa             	mov    %rdi,%rdx
    3d8e:	b9 01 00 00 00       	mov    $0x1,%ecx
    3d93:	4d 89 4c 24 18       	mov    %r9,0x18(%r12)
    3d98:	4d 89 44 24 10       	mov    %r8,0x10(%r12)
    3d9d:	49 89 7c 24 08       	mov    %rdi,0x8(%r12)
    3da2:	48 89 c7             	mov    %rax,%rdi
    3da5:	48 8d 05 06 00 00 00 	lea    0x6(%rip),%rax        # 3db2 <cml_dequeue_10+0xdc>
    3dac:	e9 af f2 ff ff       	jmp    3060 <cake_ffitransfer32>
    3db1:	90                   	nop
    3db2:	49 8b 5c 24 18       	mov    0x18(%r12),%rbx
    3db7:	4d 8b 44 24 10       	mov    0x10(%r12),%r8
    3dbc:	49 8b 44 24 08       	mov    0x8(%r12),%rax
    3dc1:	48 8b 08             	mov    (%rax),%rcx
    3dc4:	48 89 c8             	mov    %rcx,%rax
    3dc7:	be 08 00 00 00       	mov    $0x8,%esi
    3dcc:	48 f7 e6             	mul    %rsi
    3dcf:	4c 89 c7             	mov    %r8,%rdi
    3dd2:	48 01 f8             	add    %rdi,%rax
    3dd5:	4c 8b 08             	mov    (%rax),%r9
    3dd8:	48 83 c1 01          	add    $0x1,%rcx
    3ddc:	48 83 e1 1f          	and    $0x1f,%rcx
    3de0:	4c 89 f7             	mov    %r14,%rdi
    3de3:	48 89 f8             	mov    %rdi,%rax
    3de6:	48 89 08             	mov    %rcx,(%rax)
    3de9:	b8 20 00 00 00       	mov    $0x20,%eax
    3dee:	be 08 00 00 00       	mov    $0x8,%esi
    3df3:	48 f7 e6             	mul    %rsi
    3df6:	48 89 c2             	mov    %rax,%rdx
    3df9:	4c 01 c2             	add    %r8,%rdx
    3dfc:	be 01 00 00 00       	mov    $0x1,%esi
    3e01:	b9 01 00 00 00       	mov    $0x1,%ecx
    3e06:	49 89 5c 24 18       	mov    %rbx,0x18(%r12)
    3e0b:	4d 89 4c 24 10       	mov    %r9,0x10(%r12)
    3e10:	48 8d 05 05 00 00 00 	lea    0x5(%rip),%rax        # 3e1c <cml_dequeue_10+0x146>
    3e17:	e9 44 f2 ff ff       	jmp    3060 <cake_ffitransfer32>
    3e1c:	49 8b 44 24 18       	mov    0x18(%r12),%rax
    3e21:	49 8b 7c 24 10       	mov    0x10(%r12),%rdi
    3e26:	49 83 c4 20          	add    $0x20,%r12
    3e2a:	ff e0                	jmp    *%rax
    3e2c:	e9 07 00 00 00       	jmp    3e38 <cake_codebuffer_begin>
    3e31:	90                   	nop
    3e32:	e9 e7 f8 ff ff       	jmp    371e <cml__Raise_4>
    3e37:	90                   	nop

0000000000003e38 <cake_codebuffer_begin>:
    3e38:	90                   	nop
    3e39:	e9 c2 01 00 00       	jmp    4000 <cake_codebuffer_end>
    3e3e:	66 66 2e 0f 1f 84 00 	data16 cs nopw 0x0(%rax,%rax,1)
    3e45:	00 00 00 00 
    3e49:	66 66 2e 0f 1f 84 00 	data16 cs nopw 0x0(%rax,%rax,1)
    3e50:	00 00 00 00 
    3e54:	66 66 2e 0f 1f 84 00 	data16 cs nopw 0x0(%rax,%rax,1)
    3e5b:	00 00 00 00 
    3e5f:	66 66 2e 0f 1f 84 00 	data16 cs nopw 0x0(%rax,%rax,1)
    3e66:	00 00 00 00 
    3e6a:	66 66 2e 0f 1f 84 00 	data16 cs nopw 0x0(%rax,%rax,1)
    3e71:	00 00 00 00 
    3e75:	66 66 2e 0f 1f 84 00 	data16 cs nopw 0x0(%rax,%rax,1)
    3e7c:	00 00 00 00 
    3e80:	66 66 2e 0f 1f 84 00 	data16 cs nopw 0x0(%rax,%rax,1)
    3e87:	00 00 00 00 
    3e8b:	66 66 2e 0f 1f 84 00 	data16 cs nopw 0x0(%rax,%rax,1)
    3e92:	00 00 00 00 
    3e96:	66 66 2e 0f 1f 84 00 	data16 cs nopw 0x0(%rax,%rax,1)
    3e9d:	00 00 00 00 
    3ea1:	66 66 2e 0f 1f 84 00 	data16 cs nopw 0x0(%rax,%rax,1)
    3ea8:	00 00 00 00 
    3eac:	66 66 2e 0f 1f 84 00 	data16 cs nopw 0x0(%rax,%rax,1)
    3eb3:	00 00 00 00 
    3eb7:	66 66 2e 0f 1f 84 00 	data16 cs nopw 0x0(%rax,%rax,1)
    3ebe:	00 00 00 00 
    3ec2:	66 66 2e 0f 1f 84 00 	data16 cs nopw 0x0(%rax,%rax,1)
    3ec9:	00 00 00 00 
    3ecd:	66 66 2e 0f 1f 84 00 	data16 cs nopw 0x0(%rax,%rax,1)
    3ed4:	00 00 00 00 
    3ed8:	66 66 2e 0f 1f 84 00 	data16 cs nopw 0x0(%rax,%rax,1)
    3edf:	00 00 00 00 
    3ee3:	66 66 2e 0f 1f 84 00 	data16 cs nopw 0x0(%rax,%rax,1)
    3eea:	00 00 00 00 
    3eee:	66 66 2e 0f 1f 84 00 	data16 cs nopw 0x0(%rax,%rax,1)
    3ef5:	00 00 00 00 
    3ef9:	66 66 2e 0f 1f 84 00 	data16 cs nopw 0x0(%rax,%rax,1)
    3f00:	00 00 00 00 
    3f04:	66 66 2e 0f 1f 84 00 	data16 cs nopw 0x0(%rax,%rax,1)
    3f0b:	00 00 00 00 
    3f0f:	66 66 2e 0f 1f 84 00 	data16 cs nopw 0x0(%rax,%rax,1)
    3f16:	00 00 00 00 
    3f1a:	66 66 2e 0f 1f 84 00 	data16 cs nopw 0x0(%rax,%rax,1)
    3f21:	00 00 00 00 
    3f25:	66 66 2e 0f 1f 84 00 	data16 cs nopw 0x0(%rax,%rax,1)
    3f2c:	00 00 00 00 
    3f30:	66 66 2e 0f 1f 84 00 	data16 cs nopw 0x0(%rax,%rax,1)
    3f37:	00 00 00 00 
    3f3b:	66 66 2e 0f 1f 84 00 	data16 cs nopw 0x0(%rax,%rax,1)
    3f42:	00 00 00 00 
    3f46:	66 66 2e 0f 1f 84 00 	data16 cs nopw 0x0(%rax,%rax,1)
    3f4d:	00 00 00 00 
    3f51:	66 66 2e 0f 1f 84 00 	data16 cs nopw 0x0(%rax,%rax,1)
    3f58:	00 00 00 00 
    3f5c:	66 66 2e 0f 1f 84 00 	data16 cs nopw 0x0(%rax,%rax,1)
    3f63:	00 00 00 00 
    3f67:	66 66 2e 0f 1f 84 00 	data16 cs nopw 0x0(%rax,%rax,1)
    3f6e:	00 00 00 00 
    3f72:	66 66 2e 0f 1f 84 00 	data16 cs nopw 0x0(%rax,%rax,1)
    3f79:	00 00 00 00 
    3f7d:	66 66 2e 0f 1f 84 00 	data16 cs nopw 0x0(%rax,%rax,1)
    3f84:	00 00 00 00 
    3f88:	66 66 2e 0f 1f 84 00 	data16 cs nopw 0x0(%rax,%rax,1)
    3f8f:	00 00 00 00 
    3f93:	66 66 2e 0f 1f 84 00 	data16 cs nopw 0x0(%rax,%rax,1)
    3f9a:	00 00 00 00 
    3f9e:	66 66 2e 0f 1f 84 00 	data16 cs nopw 0x0(%rax,%rax,1)
    3fa5:	00 00 00 00 
    3fa9:	66 66 2e 0f 1f 84 00 	data16 cs nopw 0x0(%rax,%rax,1)
    3fb0:	00 00 00 00 
    3fb4:	66 66 2e 0f 1f 84 00 	data16 cs nopw 0x0(%rax,%rax,1)
    3fbb:	00 00 00 00 
    3fbf:	66 66 2e 0f 1f 84 00 	data16 cs nopw 0x0(%rax,%rax,1)
    3fc6:	00 00 00 00 
    3fca:	66 66 2e 0f 1f 84 00 	data16 cs nopw 0x0(%rax,%rax,1)
    3fd1:	00 00 00 00 
    3fd5:	66 66 2e 0f 1f 84 00 	data16 cs nopw 0x0(%rax,%rax,1)
    3fdc:	00 00 00 00 
    3fe0:	66 66 2e 0f 1f 84 00 	data16 cs nopw 0x0(%rax,%rax,1)
    3fe7:	00 00 00 00 
    3feb:	66 66 2e 0f 1f 84 00 	data16 cs nopw 0x0(%rax,%rax,1)
    3ff2:	00 00 00 00 
    3ff6:	66 2e 0f 1f 84 00 00 	cs nopw 0x0(%rax,%rax,1)
    3ffd:	00 00 00 

0000000000004000 <cake_codebuffer_end>:
	...

0000000000005000 <windows_ffitransfer32>:
    5000:	49 89 c9             	mov    %rcx,%r9
    5003:	49 89 d0             	mov    %rdx,%r8
    5006:	48 89 f2             	mov    %rsi,%rdx
    5009:	48 89 f9             	mov    %rdi,%rcx
    500c:	e9 01 02 00 00       	jmp    5212 <ffitransfer32>

0000000000005011 <windows_cml_clear>:
    5011:	49 89 c9             	mov    %rcx,%r9
    5014:	49 89 d0             	mov    %rdx,%r8
    5017:	48 89 f2             	mov    %rsi,%rdx
    501a:	48 89 f9             	mov    %rdi,%rcx
    501d:	e9 83 01 00 00       	jmp    51a5 <cml_clear>

0000000000005022 <cml_enter>:
    5022:	48 83 ec 30          	sub    $0x30,%rsp
    5026:	4c 89 65 f8          	mov    %r12,-0x8(%rbp)
    502a:	4c 89 6d f0          	mov    %r13,-0x10(%rbp)
    502e:	4c 89 75 e8          	mov    %r14,-0x18(%rbp)
    5032:	4c 89 7d e0          	mov    %r15,-0x20(%rbp)
    5036:	48 89 5d d8          	mov    %rbx,-0x28(%rbp)
    503a:	e9 51 e0 ff ff       	jmp    3090 <cml__Init_0>

000000000000503f <cml_return>:
    503f:	48 c7 05 f6 2f 00 00 	movq   $0x1,0x2ff6(%rip)        # 8040 <can_enter>
    5046:	01 00 00 00 
    504a:	4c 89 35 d7 2f 00 00 	mov    %r14,0x2fd7(%rip)        # 8028 <ret_base>
    5051:	4c 89 25 d8 2f 00 00 	mov    %r12,0x2fd8(%rip)        # 8030 <ret_stack>
    5058:	4c 89 2d d9 2f 00 00 	mov    %r13,0x2fd9(%rip)        # 8038 <ret_stackend>
    505f:	48 8b 5d d8          	mov    -0x28(%rbp),%rbx
    5063:	4c 8b 7d e0          	mov    -0x20(%rbp),%r15
    5067:	4c 8b 75 e8          	mov    -0x18(%rbp),%r14
    506b:	4c 8b 6d f0          	mov    -0x10(%rbp),%r13
    506f:	4c 8b 65 f8          	mov    -0x8(%rbp),%r12
    5073:	c9                   	leave
    5074:	c3                   	ret
    5075:	66 66 2e 0f 1f 84 00 	data16 cs nopw 0x0(%rax,%rax,1)
    507c:	00 00 00 00 

0000000000005080 <windows_cake_enter>:
    5080:	48 89 cf             	mov    %rcx,%rdi
    5083:	48 89 d6             	mov    %rdx,%rsi
    5086:	4c 89 c2             	mov    %r8,%rdx
    5089:	4c 89 c9             	mov    %r9,%rcx

000000000000508c <cake_enter>:
    508c:	55                   	push   %rbp
    508d:	48 89 e5             	mov    %rsp,%rbp
    5090:	48 83 ec 30          	sub    $0x30,%rsp
    5094:	4c 89 65 f8          	mov    %r12,-0x8(%rbp)
    5098:	4c 89 6d f0          	mov    %r13,-0x10(%rbp)
    509c:	4c 89 75 e8          	mov    %r14,-0x18(%rbp)
    50a0:	4c 89 7d e0          	mov    %r15,-0x20(%rbp)
    50a4:	48 89 5d d8          	mov    %rbx,-0x28(%rbp)
    50a8:	4c 8b 1d 91 2f 00 00 	mov    0x2f91(%rip),%r11        # 8040 <can_enter>
    50af:	49 83 fb 00          	cmp    $0x0,%r11
    50b3:	74 5b                	je     5110 <cake_err3>
    50b5:	48 c7 05 80 2f 00 00 	movq   $0x0,0x2f80(%rip)        # 8040 <can_enter>
    50bc:	00 00 00 00 
    50c0:	4c 8b 35 61 2f 00 00 	mov    0x2f61(%rip),%r14        # 8028 <ret_base>
    50c7:	4c 8b 25 62 2f 00 00 	mov    0x2f62(%rip),%r12        # 8030 <ret_stack>
    50ce:	4c 8b 2d 63 2f 00 00 	mov    0x2f63(%rip),%r13        # 8038 <ret_stackend>
    50d5:	48 8d 05 04 00 00 00 	lea    0x4(%rip),%rax        # 50e0 <cake_return>
    50dc:	41 ff e2             	jmp    *%r10
    50df:	90                   	nop

00000000000050e0 <cake_return>:
    50e0:	48 c7 05 55 2f 00 00 	movq   $0x1,0x2f55(%rip)        # 8040 <can_enter>
    50e7:	01 00 00 00 
    50eb:	89 f8                	mov    %edi,%eax
    50ed:	48 8b 5d d8          	mov    -0x28(%rbp),%rbx
    50f1:	4c 8b 7d e0          	mov    -0x20(%rbp),%r15
    50f5:	4c 8b 75 e8          	mov    -0x18(%rbp),%r14
    50f9:	4c 8b 6d f0          	mov    -0x10(%rbp),%r13
    50fd:	4c 8b 65 f8          	mov    -0x8(%rbp),%r12
    5101:	c9                   	leave
    5102:	c3                   	ret
    5103:	66 66 2e 0f 1f 84 00 	data16 cs nopw 0x0(%rax,%rax,1)
    510a:	00 00 00 00 
    510e:	66 90                	xchg   %ax,%ax

0000000000005110 <cake_err3>:
    5110:	50                   	push   %rax
    5111:	48 c7 c7 03 00 00 00 	mov    $0x3,%rdi
    5118:	e9 57 00 00 00       	jmp    5174 <cml_err>
    511d:	0f 1f 00             	nopl   (%rax)

0000000000005120 <windows_cml_err>:
    5120:	49 89 c9             	mov    %rcx,%r9
    5123:	49 89 d0             	mov    %rdx,%r8
    5126:	48 89 f2             	mov    %rsi,%rdx
    5129:	48 89 f9             	mov    %rdi,%rcx
    512c:	e9 43 00 00 00       	jmp    5174 <cml_err>

0000000000005131 <enqueue>:
    5131:	4c 8d 15 05 00 00 00 	lea    0x5(%rip),%r10        # 513d <enqueue_jmp>
    5138:	e9 4f ff ff ff       	jmp    508c <cake_enter>

000000000000513d <enqueue_jmp>:
    513d:	e9 1c ea ff ff       	jmp    3b5e <cml_enqueue_9>

0000000000005142 <dequeue>:
    5142:	4c 8d 15 05 00 00 00 	lea    0x5(%rip),%r10        # 514e <dequeue_jmp>
    5149:	e9 3e ff ff ff       	jmp    508c <cake_enter>

000000000000514e <dequeue_jmp>:
    514e:	e9 83 eb ff ff       	jmp    3cd6 <cml_dequeue_10>

0000000000005153 <cml_exit>:
    5153:	f3 0f 1e fa          	endbr64
    5157:	55                   	push   %rbp
    5158:	48 89 e5             	mov    %rsp,%rbp
    515b:	48 83 ec 10          	sub    $0x10,%rsp
    515f:	89 7d fc             	mov    %edi,-0x4(%rbp)
    5162:	48 8d 05 9f 0e 00 00 	lea    0xe9f(%rip),%rax        # 6008 <_IO_stdin_used+0x8>
    5169:	48 89 c7             	mov    %rax,%rdi
    516c:	e8 bf be ff ff       	call   1030 <puts@plt>
    5171:	90                   	nop
    5172:	c9                   	leave
    5173:	c3                   	ret

0000000000005174 <cml_err>:
    5174:	f3 0f 1e fa          	endbr64
    5178:	55                   	push   %rbp
    5179:	48 89 e5             	mov    %rsp,%rbp
    517c:	48 83 ec 10          	sub    $0x10,%rsp
    5180:	89 7d fc             	mov    %edi,-0x4(%rbp)
    5183:	83 7d fc 03          	cmpl   $0x3,-0x4(%rbp)
    5187:	75 0f                	jne    5198 <cml_err+0x24>
    5189:	48 8d 05 a0 0e 00 00 	lea    0xea0(%rip),%rax        # 6030 <_IO_stdin_used+0x30>
    5190:	48 89 c7             	mov    %rax,%rdi
    5193:	e8 98 be ff ff       	call   1030 <puts@plt>
    5198:	8b 45 fc             	mov    -0x4(%rbp),%eax
    519b:	89 c7                	mov    %eax,%edi
    519d:	e8 b1 ff ff ff       	call   5153 <cml_exit>
    51a2:	90                   	nop
    51a3:	c9                   	leave
    51a4:	c3                   	ret

00000000000051a5 <cml_clear>:
    51a5:	f3 0f 1e fa          	endbr64
    51a9:	55                   	push   %rbp
    51aa:	48 89 e5             	mov    %rsp,%rbp
    51ad:	48 8d 05 ea 0e 00 00 	lea    0xeea(%rip),%rax        # 609e <_IO_stdin_used+0x9e>
    51b4:	48 89 c7             	mov    %rax,%rdi
    51b7:	e8 74 be ff ff       	call   1030 <puts@plt>
    51bc:	90                   	nop
    51bd:	5d                   	pop    %rbp
    51be:	c3                   	ret

00000000000051bf <init_pancake_mem>:
    51bf:	f3 0f 1e fa          	endbr64
    51c3:	55                   	push   %rbp
    51c4:	48 89 e5             	mov    %rsp,%rbp
    51c7:	48 c7 45 f0 00 04 00 	movq   $0x400,-0x10(%rbp)
    51ce:	00 
    51cf:	48 c7 45 f8 00 04 00 	movq   $0x400,-0x8(%rbp)
    51d6:	00 
    51d7:	48 8d 05 c2 2e 00 00 	lea    0x2ec2(%rip),%rax        # 80a0 <cml_memory>
    51de:	48 89 05 2b 2e 00 00 	mov    %rax,0x2e2b(%rip)        # 8010 <cml_heap>
    51e5:	48 8b 15 24 2e 00 00 	mov    0x2e24(%rip),%rdx        # 8010 <cml_heap>
    51ec:	48 8b 45 f0          	mov    -0x10(%rbp),%rax
    51f0:	48 01 d0             	add    %rdx,%rax
    51f3:	48 89 05 1e 2e 00 00 	mov    %rax,0x2e1e(%rip)        # 8018 <cml_stack>
    51fa:	48 8b 15 17 2e 00 00 	mov    0x2e17(%rip),%rdx        # 8018 <cml_stack>
    5201:	48 8b 45 f8          	mov    -0x8(%rbp),%rax
    5205:	48 01 d0             	add    %rdx,%rax
    5208:	48 89 05 11 2e 00 00 	mov    %rax,0x2e11(%rip)        # 8020 <cml_stackend>
    520f:	90                   	nop
    5210:	5d                   	pop    %rbp
    5211:	c3                   	ret

0000000000005212 <ffitransfer32>:
    5212:	f3 0f 1e fa          	endbr64
    5216:	55                   	push   %rbp
    5217:	48 89 e5             	mov    %rsp,%rbp
    521a:	48 89 7d e8          	mov    %rdi,-0x18(%rbp)
    521e:	48 89 75 e0          	mov    %rsi,-0x20(%rbp)
    5222:	48 89 55 d8          	mov    %rdx,-0x28(%rbp)
    5226:	48 89 4d d0          	mov    %rcx,-0x30(%rbp)
    522a:	48 8b 45 e8          	mov    -0x18(%rbp),%rax
    522e:	8b 00                	mov    (%rax),%eax
    5230:	89 45 fc             	mov    %eax,-0x4(%rbp)
    5233:	48 8b 45 d8          	mov    -0x28(%rbp),%rax
    5237:	8b 55 fc             	mov    -0x4(%rbp),%edx
    523a:	89 10                	mov    %edx,(%rax)
    523c:	90                   	nop
    523d:	5d                   	pop    %rbp
    523e:	c3                   	ret

000000000000523f <ffiprint_int>:
    523f:	f3 0f 1e fa          	endbr64
    5243:	55                   	push   %rbp
    5244:	48 89 e5             	mov    %rsp,%rbp
    5247:	48 83 ec 20          	sub    $0x20,%rsp
    524b:	48 89 7d f8          	mov    %rdi,-0x8(%rbp)
    524f:	48 89 75 f0          	mov    %rsi,-0x10(%rbp)
    5253:	48 89 55 e8          	mov    %rdx,-0x18(%rbp)
    5257:	48 89 4d e0          	mov    %rcx,-0x20(%rbp)
    525b:	48 8b 45 f0          	mov    -0x10(%rbp),%rax
    525f:	48 89 c6             	mov    %rax,%rsi
    5262:	48 8d 05 4b 0e 00 00 	lea    0xe4b(%rip),%rax        # 60b4 <_IO_stdin_used+0xb4>
    5269:	48 89 c7             	mov    %rax,%rdi
    526c:	b8 00 00 00 00       	mov    $0x0,%eax
    5271:	e8 ca bd ff ff       	call   1040 <printf@plt>
    5276:	90                   	nop
    5277:	c9                   	leave
    5278:	c3                   	ret

0000000000005279 <main>:
    5279:	f3 0f 1e fa          	endbr64
    527d:	55                   	push   %rbp
    527e:	48 89 e5             	mov    %rsp,%rbp
    5281:	48 83 ec 40          	sub    $0x40,%rsp
    5285:	b8 00 00 00 00       	mov    $0x0,%eax
    528a:	e8 30 ff ff ff       	call   51bf <init_pancake_mem>
    528f:	e8 6c dd ff ff       	call   3000 <cml_main>
    5294:	48 8b 05 75 2d 00 00 	mov    0x2d75(%rip),%rax        # 8010 <cml_heap>
    529b:	48 89 45 d0          	mov    %rax,-0x30(%rbp)
    529f:	48 8b 45 d0          	mov    -0x30(%rbp),%rax
    52a3:	48 83 c0 08          	add    $0x8,%rax
    52a7:	48 89 45 d8          	mov    %rax,-0x28(%rbp)
    52ab:	c7 45 cc 02 00 00 00 	movl   $0x2,-0x34(%rbp)
    52b2:	eb 59                	jmp    530d <main+0x94>
    52b4:	48 8b 45 d8          	mov    -0x28(%rbp),%rax
    52b8:	48 89 c7             	mov    %rax,%rdi
    52bb:	e8 82 fe ff ff       	call   5142 <dequeue>
    52c0:	48 89 45 e8          	mov    %rax,-0x18(%rbp)
    52c4:	48 8b 45 d8          	mov    -0x28(%rbp),%rax
    52c8:	48 89 c7             	mov    %rax,%rdi
    52cb:	e8 72 fe ff ff       	call   5142 <dequeue>
    52d0:	48 89 45 f0          	mov    %rax,-0x10(%rbp)
    52d4:	48 8b 55 e8          	mov    -0x18(%rbp),%rdx
    52d8:	48 8b 45 f0          	mov    -0x10(%rbp),%rax
    52dc:	48 01 d0             	add    %rdx,%rax
    52df:	48 89 45 f8          	mov    %rax,-0x8(%rbp)
    52e3:	48 8b 55 f0          	mov    -0x10(%rbp),%rdx
    52e7:	48 8b 45 d8          	mov    -0x28(%rbp),%rax
    52eb:	48 89 d6             	mov    %rdx,%rsi
    52ee:	48 89 c7             	mov    %rax,%rdi
    52f1:	e8 3b fe ff ff       	call   5131 <enqueue>
    52f6:	48 8b 55 f8          	mov    -0x8(%rbp),%rdx
    52fa:	48 8b 45 d8          	mov    -0x28(%rbp),%rax
    52fe:	48 89 d6             	mov    %rdx,%rsi
    5301:	48 89 c7             	mov    %rax,%rdi
    5304:	e8 28 fe ff ff       	call   5131 <enqueue>
    5309:	83 45 cc 01          	addl   $0x1,-0x34(%rbp)
    530d:	81 7d cc 10 27 00 00 	cmpl   $0x2710,-0x34(%rbp)
    5314:	7e 9e                	jle    52b4 <main+0x3b>
    5316:	48 8b 45 d8          	mov    -0x28(%rbp),%rax
    531a:	48 89 c7             	mov    %rax,%rdi
    531d:	e8 20 fe ff ff       	call   5142 <dequeue>
    5322:	48 8b 45 d8          	mov    -0x28(%rbp),%rax
    5326:	48 89 c7             	mov    %rax,%rdi
    5329:	e8 14 fe ff ff       	call   5142 <dequeue>
    532e:	48 89 45 e0          	mov    %rax,-0x20(%rbp)
    5332:	b8 00 00 00 00       	mov    $0x0,%eax
    5337:	c9                   	leave
    5338:	c3                   	ret

Disassembly of section .fini:

000000000000533c <_fini>:
    533c:	f3 0f 1e fa          	endbr64
    5340:	48 83 ec 08          	sub    $0x8,%rsp
    5344:	48 83 c4 08          	add    $0x8,%rsp
    5348:	c3                   	ret
